---
triple:          'x86_64-apple-darwin'
binary-path:     a.out
relocations:
  - { offsetInCU: 0x8B48, offset: 0x8B48, size: 0x8, addend: 0x0, symName: __ZNSt3__17advanceB7v160006IPKdmmvEEvRT_T0_, symObjAddr: 0x6090, symBinAddr: 0x100009930, symSize: 0x50 }
  - { offsetInCU: 0x8DE5, offset: 0x8DE5, size: 0x8, addend: 0x0, symName: __ZNSt3__17advanceB7v160006IPimmvEEvRT_T0_, symObjAddr: 0x8010, symBinAddr: 0x10000B8B0, symSize: 0x50 }
  - { offsetInCU: 0xA497, offset: 0xA497, size: 0x8, addend: 0x0, symName: __ZNSt3__119__debug_db_insert_cB7v160006INS_6vectorIdNS_9allocatorIdEEEEEEvPT_, symObjAddr: 0x1160, symBinAddr: 0x100004A00, symSize: 0x10 }
  - { offsetInCU: 0xA4C8, offset: 0xA4C8, size: 0x8, addend: 0x0, symName: __ZNSt3__118__debug_db_erase_cB7v160006INS_6vectorIdNS_9allocatorIdEEEEEEvPT_, symObjAddr: 0x1460, symBinAddr: 0x100004D00, symSize: 0x10 }
  - { offsetInCU: 0xA4F9, offset: 0xA4F9, size: 0x8, addend: 0x0, symName: __ZNSt3__112__to_addressB7v160006IdEEPT_S2_, symObjAddr: 0x1570, symBinAddr: 0x100004E10, symSize: 0x10 }
  - { offsetInCU: 0xA52E, offset: 0xA52E, size: 0x8, addend: 0x0, symName: __ZNSt3__119__libcpp_deallocateB7v160006EPvmm, symObjAddr: 0x1680, symBinAddr: 0x100004F20, symSize: 0x60 }
  - { offsetInCU: 0xA593, offset: 0xA593, size: 0x8, addend: 0x0, symName: __ZNSt3__124__is_overaligned_for_newB7v160006Em, symObjAddr: 0x16E0, symBinAddr: 0x100004F80, symSize: 0x20 }
  - { offsetInCU: 0xA5C1, offset: 0xA5C1, size: 0x8, addend: 0x0, symName: __ZNSt3__127__do_deallocate_handle_sizeB7v160006IJSt11align_val_tEEEvPvmDpT_, symObjAddr: 0x1700, symBinAddr: 0x100004FA0, symSize: 0x30 }
  - { offsetInCU: 0xA614, offset: 0xA614, size: 0x8, addend: 0x0, symName: __ZNSt3__127__do_deallocate_handle_sizeB7v160006IJEEEvPvmDpT_, symObjAddr: 0x1730, symBinAddr: 0x100004FD0, symSize: 0x20 }
  - { offsetInCU: 0xA652, offset: 0xA652, size: 0x8, addend: 0x0, symName: __ZNSt3__124__libcpp_operator_deleteB7v160006IJPvSt11align_val_tEEEvDpT_, symObjAddr: 0x1750, symBinAddr: 0x100004FF0, symSize: 0x30 }
  - { offsetInCU: 0xA69B, offset: 0xA69B, size: 0x8, addend: 0x0, symName: __ZNSt3__124__libcpp_operator_deleteB7v160006IJPvEEEvDpT_, symObjAddr: 0x1780, symBinAddr: 0x100005020, symSize: 0x20 }
  - { offsetInCU: 0xA6D0, offset: 0xA6D0, size: 0x8, addend: 0x0, symName: __ZNSt3__119__debug_db_insert_cB7v160006INS_6vectorI6node_tNS_9allocatorIS2_EEEEEEvPT_, symObjAddr: 0x18B0, symBinAddr: 0x100005150, symSize: 0x10 }
  - { offsetInCU: 0xA701, offset: 0xA701, size: 0x8, addend: 0x0, symName: __ZNSt3__118__debug_db_erase_cB7v160006INS_6vectorI6node_tNS_9allocatorIS2_EEEEEEvPT_, symObjAddr: 0x1B40, symBinAddr: 0x1000053E0, symSize: 0x10 }
  - { offsetInCU: 0xA732, offset: 0xA732, size: 0x8, addend: 0x0, symName: __ZNSt3__112__to_addressB7v160006I6node_tEEPT_S3_, symObjAddr: 0x1C40, symBinAddr: 0x1000054E0, symSize: 0x10 }
  - { offsetInCU: 0xA767, offset: 0xA767, size: 0x8, addend: 0x0, symName: __ZNSt3__119__debug_db_insert_cB7v160006INS_6vectorIiNS_9allocatorIiEEEEEEvPT_, symObjAddr: 0x1E80, symBinAddr: 0x100005720, symSize: 0x10 }
  - { offsetInCU: 0xA798, offset: 0xA798, size: 0x8, addend: 0x0, symName: __ZNSt3__118__debug_db_erase_cB7v160006INS_6vectorIiNS_9allocatorIiEEEEEEvPT_, symObjAddr: 0x2110, symBinAddr: 0x1000059B0, symSize: 0x10 }
  - { offsetInCU: 0xA7C9, offset: 0xA7C9, size: 0x8, addend: 0x0, symName: __ZNSt3__112__to_addressB7v160006IiEEPT_S2_, symObjAddr: 0x2200, symBinAddr: 0x100005AA0, symSize: 0x10 }
  - { offsetInCU: 0xA7FE, offset: 0xA7FE, size: 0x8, addend: 0x0, symName: __ZNSt3__122__make_exception_guardB7v160006INS_6vectorIiNS_9allocatorIiEEE16__destroy_vectorEEENS_28__exception_guard_exceptionsIT_EES7_, symObjAddr: 0x2850, symBinAddr: 0x1000060F0, symSize: 0x40 }
  - { offsetInCU: 0xA833, offset: 0xA833, size: 0x8, addend: 0x0, symName: __ZNSt3__119__allocate_at_leastB7v160006INS_9allocatorIiEEEENS_19__allocation_resultINS_16allocator_traitsIT_E7pointerEEERS5_m, symObjAddr: 0x2B50, symBinAddr: 0x1000063F0, symSize: 0x40 }
  - { offsetInCU: 0xA876, offset: 0xA876, size: 0x8, addend: 0x0, symName: __ZNSt3__13minB7v160006ImEERKT_S3_S3_, symObjAddr: 0x2C60, symBinAddr: 0x100006500, symSize: 0x30 }
  - { offsetInCU: 0xAAA3, offset: 0xAAA3, size: 0x8, addend: 0x0, symName: __ZNSt3__13minB7v160006ImNS_6__lessImmEEEERKT_S5_S5_T0_, symObjAddr: 0x2CC0, symBinAddr: 0x100006560, symSize: 0x50 }
  - { offsetInCU: 0xAB38, offset: 0xAB38, size: 0x8, addend: 0x0, symName: __ZNSt3__120__throw_length_errorB7v160006EPKc, symObjAddr: 0x2D70, symBinAddr: 0x100006610, symSize: 0x70 }
  - { offsetInCU: 0xAB60, offset: 0xAB60, size: 0x8, addend: 0x0, symName: __ZNSt3__117__libcpp_allocateB7v160006Emm, symObjAddr: 0x2EE0, symBinAddr: 0x100006780, symSize: 0x60 }
  - { offsetInCU: 0xABBA, offset: 0xABBA, size: 0x8, addend: 0x0, symName: __ZNSt3__121__libcpp_operator_newB7v160006IJmSt11align_val_tEEEPvDpT_, symObjAddr: 0x2F40, symBinAddr: 0x1000067E0, symSize: 0x30 }
  - { offsetInCU: 0xAC07, offset: 0xAC07, size: 0x8, addend: 0x0, symName: __ZNSt3__121__libcpp_operator_newB7v160006IJmEEEPvDpT_, symObjAddr: 0x2F70, symBinAddr: 0x100006810, symSize: 0x20 }
  - { offsetInCU: 0xAC40, offset: 0xAC40, size: 0x8, addend: 0x0, symName: __ZNSt3__130__uninitialized_allocator_copyB7v160006INS_9allocatorIiEEPiS3_S3_EET2_RT_T0_T1_S4_, symObjAddr: 0x2FF0, symBinAddr: 0x100006890, symSize: 0x100 }
  - { offsetInCU: 0xACDE, offset: 0xACDE, size: 0x8, addend: 0x0, symName: __ZNSt3__122__make_exception_guardB7v160006INS_29_AllocatorDestroyRangeReverseINS_9allocatorIiEEPiEEEENS_28__exception_guard_exceptionsIT_EES7_, symObjAddr: 0x3150, symBinAddr: 0x1000069F0, symSize: 0x60 }
  - { offsetInCU: 0xAD13, offset: 0xAD13, size: 0x8, addend: 0x0, symName: __ZNSt3__119__allocator_destroyB7v160006INS_9allocatorIiEENS_16reverse_iteratorIPiEES5_EEvRT_T0_T1_, symObjAddr: 0x33D0, symBinAddr: 0x100006C70, symSize: 0x70 }
  - { offsetInCU: 0xAD76, offset: 0xAD76, size: 0x8, addend: 0x0, symName: __ZNSt3__1neB7v160006IPiS1_EEbRKNS_16reverse_iteratorIT_EERKNS2_IT0_EE, symObjAddr: 0x3470, symBinAddr: 0x100006D10, symSize: 0x40 }
  - { offsetInCU: 0xADC2, offset: 0xADC2, size: 0x8, addend: 0x0, symName: __ZNSt3__112__to_addressB7v160006INS_16reverse_iteratorIPiEEvEENS_5decayIDTclsr19__to_address_helperIT_EE6__callclsr3stdE7declvalIRKS5_EEEEE4typeES7_, symObjAddr: 0x34B0, symBinAddr: 0x100006D50, symSize: 0x20 }
  - { offsetInCU: 0xAE21, offset: 0xAE21, size: 0x8, addend: 0x0, symName: __ZNSt3__13maxB7v160006ImEERKT_S3_S3_, symObjAddr: 0x3900, symBinAddr: 0x1000071A0, symSize: 0x30 }
  - { offsetInCU: 0xAE64, offset: 0xAE64, size: 0x8, addend: 0x0, symName: __ZNSt3__13maxB7v160006ImNS_6__lessImmEEEERKT_S5_S5_T0_, symObjAddr: 0x39C0, symBinAddr: 0x100007260, symSize: 0x50 }
  - { offsetInCU: 0xAEBE, offset: 0xAEBE, size: 0x8, addend: 0x0, symName: __ZNSt3__119__allocate_at_leastB7v160006INS_9allocatorI6node_tEEEENS_19__allocation_resultINS_16allocator_traitsIT_E7pointerEEERS6_m, symObjAddr: 0x3B00, symBinAddr: 0x1000073A0, symSize: 0x40 }
  - { offsetInCU: 0xAF01, offset: 0xAF01, size: 0x8, addend: 0x0, symName: __ZNSt3__142__uninitialized_allocator_move_if_noexceptB7v160006INS_9allocatorI6node_tEENS_16reverse_iteratorIPS2_EES6_S6_EET2_RT_T0_T1_S7_, symObjAddr: 0x3C90, symBinAddr: 0x100007530, symSize: 0x180 }
  - { offsetInCU: 0xAFA0, offset: 0xAFA0, size: 0x8, addend: 0x0, symName: __ZNSt3__14swapB7v160006IP6node_tEENS_9enable_ifIXaasr21is_move_constructibleIT_EE5valuesr18is_move_assignableIS4_EE5valueEvE4typeERS4_S7_, symObjAddr: 0x3E60, symBinAddr: 0x100007700, symSize: 0x40 }
  - { offsetInCU: 0xAFF1, offset: 0xAFF1, size: 0x8, addend: 0x0, symName: __ZNSt3__125__debug_db_invalidate_allB7v160006INS_6vectorI6node_tNS_9allocatorIS2_EEEEEEvPT_, symObjAddr: 0x3F40, symBinAddr: 0x1000077E0, symSize: 0x10 }
  - { offsetInCU: 0xB022, offset: 0xB022, size: 0x8, addend: 0x0, symName: __ZNSt3__122__make_exception_guardB7v160006INS_29_AllocatorDestroyRangeReverseINS_9allocatorI6node_tEENS_16reverse_iteratorIPS3_EEEEEENS_28__exception_guard_exceptionsIT_EESA_, symObjAddr: 0x3F50, symBinAddr: 0x1000077F0, symSize: 0x60 }
  - { offsetInCU: 0xB057, offset: 0xB057, size: 0x8, addend: 0x0, symName: __ZNSt3__1neB7v160006IP6node_tS2_EEbRKNS_16reverse_iteratorIT_EERKNS3_IT0_EE, symObjAddr: 0x3FF0, symBinAddr: 0x100007890, symSize: 0x40 }
  - { offsetInCU: 0xB0A3, offset: 0xB0A3, size: 0x8, addend: 0x0, symName: __ZNSt3__112__to_addressB7v160006INS_16reverse_iteratorIP6node_tEEvEENS_5decayIDTclsr19__to_address_helperIT_EE6__callclsr3stdE7declvalIRKS6_EEEEE4typeES8_, symObjAddr: 0x4060, symBinAddr: 0x100007900, symSize: 0x20 }
  - { offsetInCU: 0xB0D9, offset: 0xB0D9, size: 0x8, addend: 0x0, symName: __ZNSt3__115__debug_db_swapB7v160006INS_6vectorIiNS_9allocatorIiEEEEEEvPT_S6_, symObjAddr: 0x4380, symBinAddr: 0x100007C20, symSize: 0x10 }
  - { offsetInCU: 0xB141, offset: 0xB141, size: 0x8, addend: 0x0, symName: __ZNSt3__119__allocator_destroyB7v160006INS_9allocatorI6node_tEENS_16reverse_iteratorINS4_IPS2_EEEES7_EEvRT_T0_T1_, symObjAddr: 0x4520, symBinAddr: 0x100007DC0, symSize: 0x70 }
  - { offsetInCU: 0xB1A4, offset: 0xB1A4, size: 0x8, addend: 0x0, symName: __ZNSt3__1neB7v160006INS_16reverse_iteratorIP6node_tEES4_EEbRKNS1_IT_EERKNS1_IT0_EE, symObjAddr: 0x45C0, symBinAddr: 0x100007E60, symSize: 0x50 }
  - { offsetInCU: 0xB1F0, offset: 0xB1F0, size: 0x8, addend: 0x0, symName: __ZNSt3__112__to_addressB7v160006INS_16reverse_iteratorINS1_IP6node_tEEEEvEENS_5decayIDTclsr19__to_address_helperIT_EE6__callclsr3stdE7declvalIRKS7_EEEEE4typeES9_, symObjAddr: 0x4610, symBinAddr: 0x100007EB0, symSize: 0x20 }
  - { offsetInCU: 0xB24F, offset: 0xB24F, size: 0x8, addend: 0x0, symName: __ZNSt3__142__uninitialized_allocator_move_if_noexceptB7v160006INS_9allocatorIiEENS_16reverse_iteratorIPiEES5_ivEET1_RT_T0_S9_S6_, symObjAddr: 0x4F50, symBinAddr: 0x1000087F0, symSize: 0x70 }
  - { offsetInCU: 0xB2CB, offset: 0xB2CB, size: 0x8, addend: 0x0, symName: __ZNSt3__14swapB7v160006IPiEENS_9enable_ifIXaasr21is_move_constructibleIT_EE5valuesr18is_move_assignableIS3_EE5valueEvE4typeERS3_S6_, symObjAddr: 0x4FC0, symBinAddr: 0x100008860, symSize: 0x40 }
  - { offsetInCU: 0xB31C, offset: 0xB31C, size: 0x8, addend: 0x0, symName: __ZNSt3__125__debug_db_invalidate_allB7v160006INS_6vectorIiNS_9allocatorIiEEEEEEvPT_, symObjAddr: 0x5000, symBinAddr: 0x1000088A0, symSize: 0x10 }
  - { offsetInCU: 0xB34D, offset: 0xB34D, size: 0x8, addend: 0x0, symName: __ZNSt3__14moveB7v160006INS_16reverse_iteratorIPiEES3_EET0_T_S5_S4_, symObjAddr: 0x5010, symBinAddr: 0x1000088B0, symSize: 0x80 }
  - { offsetInCU: 0xB3A7, offset: 0xB3A7, size: 0x8, addend: 0x0, symName: __ZNSt3__16__moveB7v160006INS_17_ClassicAlgPolicyENS_16reverse_iteratorIPiEES4_S4_EENS_4pairIT0_T2_EES6_T1_S7_, symObjAddr: 0x5090, symBinAddr: 0x100008930, symSize: 0x90 }
  - { offsetInCU: 0xB413, offset: 0xB413, size: 0x8, addend: 0x0, symName: __ZNSt3__123__dispatch_copy_or_moveB7v160006INS_17_ClassicAlgPolicyENS_11__move_loopIS1_EENS_14__move_trivialENS_16reverse_iteratorIPiEES7_S7_EENS_4pairIT2_T4_EES9_T3_SA_, symObjAddr: 0x5120, symBinAddr: 0x1000089C0, symSize: 0x90 }
  - { offsetInCU: 0xB491, offset: 0xB491, size: 0x8, addend: 0x0, symName: __ZNSt3__121__unwrap_and_dispatchB7v160006INS_10__overloadINS_11__move_loopINS_17_ClassicAlgPolicyEEENS_14__move_trivialEEENS_16reverse_iteratorIPiEES9_S9_Li0EEENS_4pairIT0_T2_EESB_T1_SC_, symObjAddr: 0x51B0, symBinAddr: 0x100008A50, symSize: 0x210 }
  - { offsetInCU: 0xB520, offset: 0xB520, size: 0x8, addend: 0x0, symName: __ZNSt3__114__unwrap_rangeB7v160006INS_16reverse_iteratorIPiEES3_EENS_4pairIT0_S5_EET_S7_, symObjAddr: 0x53C0, symBinAddr: 0x100008C60, symSize: 0x90 }
  - { offsetInCU: 0xB6DA, offset: 0xB6DA, size: 0x8, addend: 0x0, symName: __ZNSt3__113__unwrap_iterB7v160006INS_16reverse_iteratorIPiEENS_18__unwrap_iter_implIS3_Lb0EEELi0EEEDTclsrT0_8__unwrapclsr3stdE7declvalIT_EEEES7_, symObjAddr: 0x54F0, symBinAddr: 0x100008D90, symSize: 0x40 }
  - { offsetInCU: 0xB71E, offset: 0xB71E, size: 0x8, addend: 0x0, symName: __ZNSt3__19make_pairB7v160006INS_16reverse_iteratorIPiEES3_EENS_4pairINS_18__unwrap_ref_decayIT_E4typeENS5_IT0_E4typeEEEOS6_OS9_, symObjAddr: 0x5530, symBinAddr: 0x100008DD0, symSize: 0x30 }
  - { offsetInCU: 0xB76D, offset: 0xB76D, size: 0x8, addend: 0x0, symName: __ZNSt3__114__rewrap_rangeB7v160006INS_16reverse_iteratorIPiEES3_EET_S4_T0_, symObjAddr: 0x5560, symBinAddr: 0x100008E00, symSize: 0x60 }
  - { offsetInCU: 0xB7B9, offset: 0xB7B9, size: 0x8, addend: 0x0, symName: __ZNSt3__113__rewrap_iterB7v160006INS_16reverse_iteratorIPiEES3_NS_18__unwrap_iter_implIS3_Lb0EEEEET_S6_T0_, symObjAddr: 0x55C0, symBinAddr: 0x100008E60, symSize: 0x70 }
  - { offsetInCU: 0xB8F3, offset: 0xB8F3, size: 0x8, addend: 0x0, symName: __ZNSt3__119__debug_db_insert_cB7v160006INS_6vectorI11AStarNode_tNS_9allocatorIS2_EEEEEEvPT_, symObjAddr: 0x5960, symBinAddr: 0x100009200, symSize: 0x10 }
  - { offsetInCU: 0xB924, offset: 0xB924, size: 0x8, addend: 0x0, symName: __ZNSt3__118__debug_db_erase_cB7v160006INS_6vectorI11AStarNode_tNS_9allocatorIS2_EEEEEEvPT_, symObjAddr: 0x5BF0, symBinAddr: 0x100009490, symSize: 0x10 }
  - { offsetInCU: 0xB955, offset: 0xB955, size: 0x8, addend: 0x0, symName: __ZNSt3__112__to_addressB7v160006I11AStarNode_tEEPT_S3_, symObjAddr: 0x5D20, symBinAddr: 0x1000095C0, symSize: 0x10 }
  - { offsetInCU: 0xB98A, offset: 0xB98A, size: 0x8, addend: 0x0, symName: __ZNSt3__18distanceB7v160006IPKdEENS_15iterator_traitsIT_E15difference_typeES4_S4_, symObjAddr: 0x6060, symBinAddr: 0x100009900, symSize: 0x30 }
  - { offsetInCU: 0xB9CD, offset: 0xB9CD, size: 0x8, addend: 0x0, symName: __ZNSt3__14copyB7v160006IPKdPdEET0_T_S5_S4_, symObjAddr: 0x60E0, symBinAddr: 0x100009980, symSize: 0x40 }
  - { offsetInCU: 0xBA27, offset: 0xBA27, size: 0x8, addend: 0x0, symName: __ZNSt3__125__debug_db_invalidate_allB7v160006INS_6vectorIdNS_9allocatorIdEEEEEEvPT_, symObjAddr: 0x63D0, symBinAddr: 0x100009C70, symSize: 0x10 }
  - { offsetInCU: 0xBA58, offset: 0xBA58, size: 0x8, addend: 0x0, symName: __ZNSt3__110__distanceB7v160006IPKdEENS_15iterator_traitsIT_E15difference_typeES4_S4_NS_26random_access_iterator_tagE, symObjAddr: 0x63E0, symBinAddr: 0x100009C80, symSize: 0x20 }
  - { offsetInCU: 0xBAA5, offset: 0xBAA5, size: 0x8, addend: 0x0, symName: __ZNSt3__121__convert_to_integralB7v160006Em, symObjAddr: 0x6400, symBinAddr: 0x100009CA0, symSize: 0x10 }
  - { offsetInCU: 0xBAD1, offset: 0xBAD1, size: 0x8, addend: 0x0, symName: __ZNSt3__19__advanceB7v160006IPKdEEvRT_NS_15iterator_traitsIS3_E15difference_typeENS_26random_access_iterator_tagE, symObjAddr: 0x6410, symBinAddr: 0x100009CB0, symSize: 0x20 }
  - { offsetInCU: 0xBB1A, offset: 0xBB1A, size: 0x8, addend: 0x0, symName: __ZNSt3__16__copyB7v160006INS_17_ClassicAlgPolicyEPKdS3_PdEENS_4pairIT0_T2_EES6_T1_S7_, symObjAddr: 0x6430, symBinAddr: 0x100009CD0, symSize: 0x40 }
  - { offsetInCU: 0xBB86, offset: 0xBB86, size: 0x8, addend: 0x0, symName: __ZNSt3__123__dispatch_copy_or_moveB7v160006INS_17_ClassicAlgPolicyENS_11__copy_loopIS1_EENS_14__copy_trivialEPKdS6_PdEENS_4pairIT2_T4_EES9_T3_SA_, symObjAddr: 0x6470, symBinAddr: 0x100009D10, symSize: 0x40 }
  - { offsetInCU: 0xBC04, offset: 0xBC04, size: 0x8, addend: 0x0, symName: __ZNSt3__121__unwrap_and_dispatchB7v160006INS_10__overloadINS_11__copy_loopINS_17_ClassicAlgPolicyEEENS_14__copy_trivialEEEPKdS8_PdLi0EEENS_4pairIT0_T2_EESB_T1_SC_, symObjAddr: 0x64B0, symBinAddr: 0x100009D50, symSize: 0xB0 }
  - { offsetInCU: 0xBC93, offset: 0xBC93, size: 0x8, addend: 0x0, symName: __ZNSt3__114__unwrap_rangeB7v160006IPKdS2_EENS_4pairIT0_S4_EET_S6_, symObjAddr: 0x6560, symBinAddr: 0x100009E00, symSize: 0x50 }
  - { offsetInCU: 0xBE64, offset: 0xBE64, size: 0x8, addend: 0x0, symName: __ZNSt3__113__unwrap_iterB7v160006IPdNS_18__unwrap_iter_implIS1_Lb1EEELi0EEEDTclsrT0_8__unwrapclsr3stdE7declvalIT_EEEES5_, symObjAddr: 0x65F0, symBinAddr: 0x100009E90, symSize: 0x20 }
  - { offsetInCU: 0xBEA8, offset: 0xBEA8, size: 0x8, addend: 0x0, symName: __ZNSt3__19make_pairB7v160006IPKdPdEENS_4pairINS_18__unwrap_ref_decayIT_E4typeENS5_IT0_E4typeEEEOS6_OS9_, symObjAddr: 0x6610, symBinAddr: 0x100009EB0, symSize: 0x30 }
  - { offsetInCU: 0xBEF7, offset: 0xBEF7, size: 0x8, addend: 0x0, symName: __ZNSt3__114__rewrap_rangeB7v160006IPKdS2_EET_S3_T0_, symObjAddr: 0x6640, symBinAddr: 0x100009EE0, symSize: 0x30 }
  - { offsetInCU: 0xBF43, offset: 0xBF43, size: 0x8, addend: 0x0, symName: __ZNSt3__113__rewrap_iterB7v160006IPdS1_NS_18__unwrap_iter_implIS1_Lb1EEEEET_S4_T0_, symObjAddr: 0x6670, symBinAddr: 0x100009F10, symSize: 0x40 }
  - { offsetInCU: 0xBF98, offset: 0xBF98, size: 0x8, addend: 0x0, symName: __ZNSt3__19make_pairB7v160006IPKdS2_EENS_4pairINS_18__unwrap_ref_decayIT_E4typeENS4_IT0_E4typeEEEOS5_OS8_, symObjAddr: 0x66B0, symBinAddr: 0x100009F50, symSize: 0x30 }
  - { offsetInCU: 0xBFE7, offset: 0xBFE7, size: 0x8, addend: 0x0, symName: __ZNSt3__113__unwrap_iterB7v160006IPKdNS_18__unwrap_iter_implIS2_Lb1EEELi0EEEDTclsrT0_8__unwrapclsr3stdE7declvalIT_EEEES6_, symObjAddr: 0x66E0, symBinAddr: 0x100009F80, symSize: 0x20 }
  - { offsetInCU: 0xC152, offset: 0xC152, size: 0x8, addend: 0x0, symName: __ZNSt3__112__to_addressB7v160006IKdEEPT_S3_, symObjAddr: 0x6780, symBinAddr: 0x10000A020, symSize: 0x10 }
  - { offsetInCU: 0xC187, offset: 0xC187, size: 0x8, addend: 0x0, symName: __ZNSt3__119__copy_trivial_implB7v160006IKddEENS_4pairIPT_PT0_EES4_S4_S6_, symObjAddr: 0x6790, symBinAddr: 0x10000A030, symSize: 0x70 }
  - { offsetInCU: 0xC1EF, offset: 0xC1EF, size: 0x8, addend: 0x0, symName: __ZNSt3__19make_pairB7v160006IRPKdPdEENS_4pairINS_18__unwrap_ref_decayIT_E4typeENS6_IT0_E4typeEEEOS7_OSA_, symObjAddr: 0x6800, symBinAddr: 0x10000A0A0, symSize: 0x30 }
  - { offsetInCU: 0xC291, offset: 0xC291, size: 0x8, addend: 0x0, symName: __ZNSt3__113__rewrap_iterB7v160006IPKdS2_NS_18__unwrap_iter_implIS2_Lb1EEEEET_S5_T0_, symObjAddr: 0x6910, symBinAddr: 0x10000A1B0, symSize: 0x40 }
  - { offsetInCU: 0xC2E6, offset: 0xC2E6, size: 0x8, addend: 0x0, symName: __ZNSt3__130__uninitialized_allocator_copyB7v160006INS_9allocatorIdEEddLPv0EEEPT0_RT_PKS4_S9_S5_, symObjAddr: 0x6A20, symBinAddr: 0x10000A2C0, symSize: 0x30 }
  - { offsetInCU: 0xC35E, offset: 0xC35E, size: 0x8, addend: 0x0, symName: __ZNSt3__119__allocate_at_leastB7v160006INS_9allocatorIdEEEENS_19__allocation_resultINS_16allocator_traitsIT_E7pointerEEERS5_m, symObjAddr: 0x6CA0, symBinAddr: 0x10000A540, symSize: 0x40 }
  - { offsetInCU: 0xC3A1, offset: 0xC3A1, size: 0x8, addend: 0x0, symName: __ZNSt3__142__uninitialized_allocator_move_if_noexceptB7v160006INS_9allocatorIdEENS_16reverse_iteratorIPdEES5_dvEET1_RT_T0_S9_S6_, symObjAddr: 0x73C0, symBinAddr: 0x10000AC60, symSize: 0x70 }
  - { offsetInCU: 0xC41D, offset: 0xC41D, size: 0x8, addend: 0x0, symName: __ZNSt3__14swapB7v160006IPdEENS_9enable_ifIXaasr21is_move_constructibleIT_EE5valuesr18is_move_assignableIS3_EE5valueEvE4typeERS3_S6_, symObjAddr: 0x7480, symBinAddr: 0x10000AD20, symSize: 0x40 }
  - { offsetInCU: 0xC46E, offset: 0xC46E, size: 0x8, addend: 0x0, symName: __ZNSt3__14moveB7v160006INS_16reverse_iteratorIPdEES3_EET0_T_S5_S4_, symObjAddr: 0x74C0, symBinAddr: 0x10000AD60, symSize: 0x80 }
  - { offsetInCU: 0xC4C8, offset: 0xC4C8, size: 0x8, addend: 0x0, symName: __ZNSt3__16__moveB7v160006INS_17_ClassicAlgPolicyENS_16reverse_iteratorIPdEES4_S4_EENS_4pairIT0_T2_EES6_T1_S7_, symObjAddr: 0x7540, symBinAddr: 0x10000ADE0, symSize: 0x90 }
  - { offsetInCU: 0xC534, offset: 0xC534, size: 0x8, addend: 0x0, symName: __ZNSt3__123__dispatch_copy_or_moveB7v160006INS_17_ClassicAlgPolicyENS_11__move_loopIS1_EENS_14__move_trivialENS_16reverse_iteratorIPdEES7_S7_EENS_4pairIT2_T4_EES9_T3_SA_, symObjAddr: 0x75D0, symBinAddr: 0x10000AE70, symSize: 0x90 }
  - { offsetInCU: 0xC5B2, offset: 0xC5B2, size: 0x8, addend: 0x0, symName: __ZNSt3__121__unwrap_and_dispatchB7v160006INS_10__overloadINS_11__move_loopINS_17_ClassicAlgPolicyEEENS_14__move_trivialEEENS_16reverse_iteratorIPdEES9_S9_Li0EEENS_4pairIT0_T2_EESB_T1_SC_, symObjAddr: 0x7660, symBinAddr: 0x10000AF00, symSize: 0x210 }
  - { offsetInCU: 0xC641, offset: 0xC641, size: 0x8, addend: 0x0, symName: __ZNSt3__114__unwrap_rangeB7v160006INS_16reverse_iteratorIPdEES3_EENS_4pairIT0_S5_EET_S7_, symObjAddr: 0x7870, symBinAddr: 0x10000B110, symSize: 0x90 }
  - { offsetInCU: 0xC761, offset: 0xC761, size: 0x8, addend: 0x0, symName: __ZNSt3__113__unwrap_iterB7v160006INS_16reverse_iteratorIPdEENS_18__unwrap_iter_implIS3_Lb0EEELi0EEEDTclsrT0_8__unwrapclsr3stdE7declvalIT_EEEES7_, symObjAddr: 0x79A0, symBinAddr: 0x10000B240, symSize: 0x40 }
  - { offsetInCU: 0xC7A5, offset: 0xC7A5, size: 0x8, addend: 0x0, symName: __ZNSt3__19make_pairB7v160006INS_16reverse_iteratorIPdEES3_EENS_4pairINS_18__unwrap_ref_decayIT_E4typeENS5_IT0_E4typeEEEOS6_OS9_, symObjAddr: 0x79E0, symBinAddr: 0x10000B280, symSize: 0x30 }
  - { offsetInCU: 0xC7F4, offset: 0xC7F4, size: 0x8, addend: 0x0, symName: __ZNSt3__114__rewrap_rangeB7v160006INS_16reverse_iteratorIPdEES3_EET_S4_T0_, symObjAddr: 0x7A10, symBinAddr: 0x10000B2B0, symSize: 0x60 }
  - { offsetInCU: 0xC840, offset: 0xC840, size: 0x8, addend: 0x0, symName: __ZNSt3__113__rewrap_iterB7v160006INS_16reverse_iteratorIPdEES3_NS_18__unwrap_iter_implIS3_Lb0EEEEET_S6_T0_, symObjAddr: 0x7A70, symBinAddr: 0x10000B310, symSize: 0x70 }
  - { offsetInCU: 0xC895, offset: 0xC895, size: 0x8, addend: 0x0, symName: __ZNSt3__1neB7v160006IPdS1_EEbRKNS_16reverse_iteratorIT_EERKNS2_IT0_EE, symObjAddr: 0x7AE0, symBinAddr: 0x10000B380, symSize: 0x40 }
  - { offsetInCU: 0xC94D, offset: 0xC94D, size: 0x8, addend: 0x0, symName: __ZNSt3__18distanceB7v160006IPiEENS_15iterator_traitsIT_E15difference_typeES3_S3_, symObjAddr: 0x7FE0, symBinAddr: 0x10000B880, symSize: 0x30 }
  - { offsetInCU: 0xC990, offset: 0xC990, size: 0x8, addend: 0x0, symName: __ZNSt3__14copyB7v160006IPiS1_EET0_T_S3_S2_, symObjAddr: 0x8060, symBinAddr: 0x10000B900, symSize: 0x40 }
  - { offsetInCU: 0xC9EA, offset: 0xC9EA, size: 0x8, addend: 0x0, symName: __ZNSt3__110__distanceB7v160006IPiEENS_15iterator_traitsIT_E15difference_typeES3_S3_NS_26random_access_iterator_tagE, symObjAddr: 0x8180, symBinAddr: 0x10000BA20, symSize: 0x20 }
  - { offsetInCU: 0xCA37, offset: 0xCA37, size: 0x8, addend: 0x0, symName: __ZNSt3__19__advanceB7v160006IPiEEvRT_NS_15iterator_traitsIS2_E15difference_typeENS_26random_access_iterator_tagE, symObjAddr: 0x81A0, symBinAddr: 0x10000BA40, symSize: 0x20 }
  - { offsetInCU: 0xCA80, offset: 0xCA80, size: 0x8, addend: 0x0, symName: __ZNSt3__16__copyB7v160006INS_17_ClassicAlgPolicyEPiS2_S2_EENS_4pairIT0_T2_EES4_T1_S5_, symObjAddr: 0x81C0, symBinAddr: 0x10000BA60, symSize: 0x40 }
  - { offsetInCU: 0xCAEC, offset: 0xCAEC, size: 0x8, addend: 0x0, symName: __ZNSt3__123__dispatch_copy_or_moveB7v160006INS_17_ClassicAlgPolicyENS_11__copy_loopIS1_EENS_14__copy_trivialEPiS5_S5_EENS_4pairIT2_T4_EES7_T3_S8_, symObjAddr: 0x8200, symBinAddr: 0x10000BAA0, symSize: 0x40 }
  - { offsetInCU: 0xCB6A, offset: 0xCB6A, size: 0x8, addend: 0x0, symName: __ZNSt3__121__unwrap_and_dispatchB7v160006INS_10__overloadINS_11__copy_loopINS_17_ClassicAlgPolicyEEENS_14__copy_trivialEEEPiS7_S7_Li0EEENS_4pairIT0_T2_EES9_T1_SA_, symObjAddr: 0x8240, symBinAddr: 0x10000BAE0, symSize: 0xB0 }
  - { offsetInCU: 0xCBF9, offset: 0xCBF9, size: 0x8, addend: 0x0, symName: __ZNSt3__114__unwrap_rangeB7v160006IPiS1_EENS_4pairIT0_S3_EET_S5_, symObjAddr: 0x82F0, symBinAddr: 0x10000BB90, symSize: 0x50 }
  - { offsetInCU: 0xCD48, offset: 0xCD48, size: 0x8, addend: 0x0, symName: __ZNSt3__113__unwrap_iterB7v160006IPiNS_18__unwrap_iter_implIS1_Lb1EEELi0EEEDTclsrT0_8__unwrapclsr3stdE7declvalIT_EEEES5_, symObjAddr: 0x8380, symBinAddr: 0x10000BC20, symSize: 0x20 }
  - { offsetInCU: 0xCD8C, offset: 0xCD8C, size: 0x8, addend: 0x0, symName: __ZNSt3__19make_pairB7v160006IPiS1_EENS_4pairINS_18__unwrap_ref_decayIT_E4typeENS3_IT0_E4typeEEEOS4_OS7_, symObjAddr: 0x83A0, symBinAddr: 0x10000BC40, symSize: 0x30 }
  - { offsetInCU: 0xCDDB, offset: 0xCDDB, size: 0x8, addend: 0x0, symName: __ZNSt3__114__rewrap_rangeB7v160006IPiS1_EET_S2_T0_, symObjAddr: 0x83D0, symBinAddr: 0x10000BC70, symSize: 0x30 }
  - { offsetInCU: 0xCE27, offset: 0xCE27, size: 0x8, addend: 0x0, symName: __ZNSt3__113__rewrap_iterB7v160006IPiS1_NS_18__unwrap_iter_implIS1_Lb1EEEEET_S4_T0_, symObjAddr: 0x8400, symBinAddr: 0x10000BCA0, symSize: 0x40 }
  - { offsetInCU: 0xCE7C, offset: 0xCE7C, size: 0x8, addend: 0x0, symName: __ZNSt3__119__copy_trivial_implB7v160006IiiEENS_4pairIPT_PT0_EES3_S3_S5_, symObjAddr: 0x8440, symBinAddr: 0x10000BCE0, symSize: 0x70 }
  - { offsetInCU: 0xCEE4, offset: 0xCEE4, size: 0x8, addend: 0x0, symName: __ZNSt3__19make_pairB7v160006IRPiS1_EENS_4pairINS_18__unwrap_ref_decayIT_E4typeENS4_IT0_E4typeEEEOS5_OS8_, symObjAddr: 0x84B0, symBinAddr: 0x10000BD50, symSize: 0x30 }
  - { offsetInCU: 0xCF86, offset: 0xCF86, size: 0x8, addend: 0x0, symName: __ZNSt3__122__make_exception_guardB7v160006INS_6vectorIdNS_9allocatorIdEEE16__destroy_vectorEEENS_28__exception_guard_exceptionsIT_EES7_, symObjAddr: 0x8BE0, symBinAddr: 0x10000C480, symSize: 0x40 }
  - { offsetInCU: 0xCFBB, offset: 0xCFBB, size: 0x8, addend: 0x0, symName: __ZNSt3__130__uninitialized_allocator_copyB7v160006INS_9allocatorIdEEPdS3_S3_EET2_RT_T0_T1_S4_, symObjAddr: 0x8D90, symBinAddr: 0x10000C630, symSize: 0x100 }
  - { offsetInCU: 0xD059, offset: 0xD059, size: 0x8, addend: 0x0, symName: __ZNSt3__122__make_exception_guardB7v160006INS_29_AllocatorDestroyRangeReverseINS_9allocatorIdEEPdEEEENS_28__exception_guard_exceptionsIT_EES7_, symObjAddr: 0x8E90, symBinAddr: 0x10000C730, symSize: 0x60 }
  - { offsetInCU: 0xD08E, offset: 0xD08E, size: 0x8, addend: 0x0, symName: __ZNSt3__119__allocator_destroyB7v160006INS_9allocatorIdEENS_16reverse_iteratorIPdEES5_EEvRT_T0_T1_, symObjAddr: 0x9120, symBinAddr: 0x10000C9C0, symSize: 0x70 }
  - { offsetInCU: 0xD0F1, offset: 0xD0F1, size: 0x8, addend: 0x0, symName: __ZNSt3__112__to_addressB7v160006INS_16reverse_iteratorIPdEEvEENS_5decayIDTclsr19__to_address_helperIT_EE6__callclsr3stdE7declvalIRKS5_EEEEE4typeES7_, symObjAddr: 0x9190, symBinAddr: 0x10000CA30, symSize: 0x20 }
  - { offsetInCU: 0xD150, offset: 0xD150, size: 0x8, addend: 0x0, symName: __ZNSt3__119__allocate_at_leastB7v160006INS_9allocatorI11AStarNode_tEEEENS_19__allocation_resultINS_16allocator_traitsIT_E7pointerEEERS6_m, symObjAddr: 0x96A0, symBinAddr: 0x10000CF40, symSize: 0x40 }
  - { offsetInCU: 0xD193, offset: 0xD193, size: 0x8, addend: 0x0, symName: __ZNSt3__142__uninitialized_allocator_move_if_noexceptB7v160006INS_9allocatorI11AStarNode_tEENS_16reverse_iteratorIPS2_EES6_S6_EET2_RT_T0_T1_S7_, symObjAddr: 0x9830, symBinAddr: 0x10000D0D0, symSize: 0x180 }
  - { offsetInCU: 0xD232, offset: 0xD232, size: 0x8, addend: 0x0, symName: __ZNSt3__14swapB7v160006IP11AStarNode_tEENS_9enable_ifIXaasr21is_move_constructibleIT_EE5valuesr18is_move_assignableIS4_EE5valueEvE4typeERS4_S7_, symObjAddr: 0x9A00, symBinAddr: 0x10000D2A0, symSize: 0x40 }
  - { offsetInCU: 0xD283, offset: 0xD283, size: 0x8, addend: 0x0, symName: __ZNSt3__125__debug_db_invalidate_allB7v160006INS_6vectorI11AStarNode_tNS_9allocatorIS2_EEEEEEvPT_, symObjAddr: 0x9AE0, symBinAddr: 0x10000D380, symSize: 0x10 }
  - { offsetInCU: 0xD2B4, offset: 0xD2B4, size: 0x8, addend: 0x0, symName: __ZNSt3__122__make_exception_guardB7v160006INS_29_AllocatorDestroyRangeReverseINS_9allocatorI11AStarNode_tEENS_16reverse_iteratorIPS3_EEEEEENS_28__exception_guard_exceptionsIT_EESA_, symObjAddr: 0x9AF0, symBinAddr: 0x10000D390, symSize: 0x60 }
  - { offsetInCU: 0xD2E9, offset: 0xD2E9, size: 0x8, addend: 0x0, symName: __ZNSt3__1neB7v160006IP11AStarNode_tS2_EEbRKNS_16reverse_iteratorIT_EERKNS3_IT0_EE, symObjAddr: 0x9B90, symBinAddr: 0x10000D430, symSize: 0x40 }
  - { offsetInCU: 0xD335, offset: 0xD335, size: 0x8, addend: 0x0, symName: __ZNSt3__112__to_addressB7v160006INS_16reverse_iteratorIP11AStarNode_tEEvEENS_5decayIDTclsr19__to_address_helperIT_EE6__callclsr3stdE7declvalIRKS6_EEEEE4typeES8_, symObjAddr: 0x9C00, symBinAddr: 0x10000D4A0, symSize: 0x20 }
  - { offsetInCU: 0xD36B, offset: 0xD36B, size: 0x8, addend: 0x0, symName: __ZNSt3__115__debug_db_swapB7v160006INS_6vectorIdNS_9allocatorIdEEEEEEvPT_S6_, symObjAddr: 0x9F20, symBinAddr: 0x10000D7C0, symSize: 0x10 }
  - { offsetInCU: 0xD3D3, offset: 0xD3D3, size: 0x8, addend: 0x0, symName: __ZNSt3__119__allocator_destroyB7v160006INS_9allocatorI11AStarNode_tEENS_16reverse_iteratorINS4_IPS2_EEEES7_EEvRT_T0_T1_, symObjAddr: 0xA0C0, symBinAddr: 0x10000D960, symSize: 0x70 }
  - { offsetInCU: 0xD436, offset: 0xD436, size: 0x8, addend: 0x0, symName: __ZNSt3__1neB7v160006INS_16reverse_iteratorIP11AStarNode_tEES4_EEbRKNS1_IT_EERKNS1_IT0_EE, symObjAddr: 0xA160, symBinAddr: 0x10000DA00, symSize: 0x50 }
  - { offsetInCU: 0xD482, offset: 0xD482, size: 0x8, addend: 0x0, symName: __ZNSt3__112__to_addressB7v160006INS_16reverse_iteratorINS1_IP11AStarNode_tEEEEvEENS_5decayIDTclsr19__to_address_helperIT_EE6__callclsr3stdE7declvalIRKS7_EEEEE4typeES9_, symObjAddr: 0xA1B0, symBinAddr: 0x10000DA50, symSize: 0x20 }
  - { offsetInCU: 0xD4E1, offset: 0xD4E1, size: 0x8, addend: 0x0, symName: __ZNSt3__122__make_exception_guardB7v160006INS_6vectorI11AStarNode_tNS_9allocatorIS2_EEE16__destroy_vectorEEENS_28__exception_guard_exceptionsIT_EES8_, symObjAddr: 0xA660, symBinAddr: 0x10000DF00, symSize: 0x40 }
  - { offsetInCU: 0xD516, offset: 0xD516, size: 0x8, addend: 0x0, symName: __ZNSt3__130__uninitialized_allocator_copyB7v160006INS_9allocatorI11AStarNode_tEEPS2_S4_S4_EET2_RT_T0_T1_S5_, symObjAddr: 0xA8B0, symBinAddr: 0x10000E150, symSize: 0x100 }
  - { offsetInCU: 0xD5B4, offset: 0xD5B4, size: 0x8, addend: 0x0, symName: __ZNSt3__122__make_exception_guardB7v160006INS_29_AllocatorDestroyRangeReverseINS_9allocatorI11AStarNode_tEEPS3_EEEENS_28__exception_guard_exceptionsIT_EES8_, symObjAddr: 0xA9B0, symBinAddr: 0x10000E250, symSize: 0x60 }
  - { offsetInCU: 0xD5E9, offset: 0xD5E9, size: 0x8, addend: 0x0, symName: __ZNSt3__119__allocator_destroyB7v160006INS_9allocatorI11AStarNode_tEENS_16reverse_iteratorIPS2_EES6_EEvRT_T0_T1_, symObjAddr: 0xAC40, symBinAddr: 0x10000E4E0, symSize: 0x70 }
  - { offsetInCU: 0xDB74, offset: 0xDB74, size: 0x8, addend: 0x0, symName: __ZSt28__throw_bad_array_new_lengthB7v160006v, symObjAddr: 0x2EA0, symBinAddr: 0x100006740, symSize: 0x40 }
  - { offsetInCU: 0xE315, offset: 0xE315, size: 0x8, addend: 0x0, symName: __ZNSt3__16vectorI6node_tNS_9allocatorIS1_EEE26__swap_out_circular_bufferERNS_14__split_bufferIS1_RS3_EE, symObjAddr: 0x3730, symBinAddr: 0x100006FD0, symSize: 0x130 }
  - { offsetInCU: 0xE3A6, offset: 0xE3A6, size: 0x8, addend: 0x0, symName: __ZNSt3__16vectorIiNS_9allocatorIiEEE26__swap_out_circular_bufferERNS_14__split_bufferIiRS2_EE, symObjAddr: 0x4C00, symBinAddr: 0x1000084A0, symSize: 0x130 }
  - { offsetInCU: 0xE5CC, offset: 0xE5CC, size: 0x8, addend: 0x0, symName: __ZNSt3__16vectorIdNS_9allocatorIdEEE26__swap_out_circular_bufferERNS_14__split_bufferIdRS2_EE, symObjAddr: 0x7070, symBinAddr: 0x10000A910, symSize: 0x130 }
  - { offsetInCU: 0xE662, offset: 0xE662, size: 0x8, addend: 0x0, symName: __ZNSt3__16vectorI11AStarNode_tNS_9allocatorIS1_EEE26__swap_out_circular_bufferERNS_14__split_bufferIS1_RS3_EE, symObjAddr: 0x9350, symBinAddr: 0x10000CBF0, symSize: 0x130 }
  - { offsetInCU: 0x108AB, offset: 0x108AB, size: 0x8, addend: 0x0, symName: __Z14TArrayContainsRNSt3__16vectorIiNS_9allocatorIiEEEEi, symObjAddr: 0x0, symBinAddr: 0x1000038A0, symSize: 0x80 }
  - { offsetInCU: 0x1090F, offset: 0x1090F, size: 0x8, addend: 0x0, symName: __ZNKSt3__16vectorIiNS_9allocatorIiEEE4sizeB7v160006Ev, symObjAddr: 0x80, symBinAddr: 0x100003920, symSize: 0x20 }
  - { offsetInCU: 0x10933, offset: 0x10933, size: 0x8, addend: 0x0, symName: __ZNSt3__16vectorIiNS_9allocatorIiEEEixB7v160006Em, symObjAddr: 0xA0, symBinAddr: 0x100003940, symSize: 0x20 }
  - { offsetInCU: 0x10969, offset: 0x10969, size: 0x8, addend: 0x0, symName: _main, symObjAddr: 0xC0, symBinAddr: 0x100003960, symSize: 0xB40 }
  - { offsetInCU: 0x10B60, offset: 0x10B60, size: 0x8, addend: 0x0, symName: __ZNSt3__16vectorI6node_tNS_9allocatorIS1_EEEC1B7v160006Ev, symObjAddr: 0xC00, symBinAddr: 0x1000044A0, symSize: 0x20 }
  - { offsetInCU: 0x10B88, offset: 0x10B88, size: 0x8, addend: 0x0, symName: __ZNSt3__16vectorIiNS_9allocatorIiEEEC1B7v160006Ev, symObjAddr: 0xC20, symBinAddr: 0x1000044C0, symSize: 0x20 }
  - { offsetInCU: 0x10BAF, offset: 0x10BAF, size: 0x8, addend: 0x0, symName: __ZNSt3__16vectorI6node_tNS_9allocatorIS1_EEE9push_backB7v160006ERKS1_, symObjAddr: 0xC40, symBinAddr: 0x1000044E0, symSize: 0x60 }
  - { offsetInCU: 0x10BEA, offset: 0x10BEA, size: 0x8, addend: 0x0, symName: __ZN6node_tD1Ev, symObjAddr: 0xCA0, symBinAddr: 0x100004540, symSize: 0x20 }
  - { offsetInCU: 0x10C13, offset: 0x10C13, size: 0x8, addend: 0x0, symName: __ZNSt3__16vectorI6node_tNS_9allocatorIS1_EEEixB7v160006Em, symObjAddr: 0xCC0, symBinAddr: 0x100004560, symSize: 0x20 }
  - { offsetInCU: 0x10C48, offset: 0x10C48, size: 0x8, addend: 0x0, symName: __ZNKSt3__16vectorI6node_tNS_9allocatorIS1_EEE4sizeB7v160006Ev, symObjAddr: 0xCE0, symBinAddr: 0x100004580, symSize: 0x30 }
  - { offsetInCU: 0x10C6C, offset: 0x10C6C, size: 0x8, addend: 0x0, symName: __Z15Vector2Distance7Vector2S_, symObjAddr: 0xD10, symBinAddr: 0x1000045B0, symSize: 0x60 }
  - { offsetInCU: 0x10CB8, offset: 0x10CB8, size: 0x8, addend: 0x0, symName: __ZNSt3__16vectorIiNS_9allocatorIiEEE9push_backB7v160006ERKi, symObjAddr: 0xD70, symBinAddr: 0x100004610, symSize: 0x60 }
  - { offsetInCU: 0x10CEE, offset: 0x10CEE, size: 0x8, addend: 0x0, symName: __ZNSt3__16vectorI11AStarNode_tNS_9allocatorIS1_EEEC1B7v160006Ev, symObjAddr: 0xDD0, symBinAddr: 0x100004670, symSize: 0x20 }
  - { offsetInCU: 0x10D1B, offset: 0x10D1B, size: 0x8, addend: 0x0, symName: __ZN11AStarNode_tC1Ev, symObjAddr: 0xDF0, symBinAddr: 0x100004690, symSize: 0x20 }
  - { offsetInCU: 0x10D45, offset: 0x10D45, size: 0x8, addend: 0x0, symName: __ZNSt16initializer_listIdEC1B7v160006Ev, symObjAddr: 0xE10, symBinAddr: 0x1000046B0, symSize: 0x20 }
  - { offsetInCU: 0x10D6C, offset: 0x10D6C, size: 0x8, addend: 0x0, symName: __ZNSt3__16vectorIdNS_9allocatorIdEEEaSB7v160006ESt16initializer_listIdE, symObjAddr: 0xE30, symBinAddr: 0x1000046D0, symSize: 0x50 }
  - { offsetInCU: 0x10D9F, offset: 0x10D9F, size: 0x8, addend: 0x0, symName: __ZNSt3__16vectorIdNS_9allocatorIdEEE9push_backB7v160006ERKd, symObjAddr: 0xE80, symBinAddr: 0x100004720, symSize: 0x60 }
  - { offsetInCU: 0x10DD4, offset: 0x10DD4, size: 0x8, addend: 0x0, symName: __ZNSt3__16vectorIiNS_9allocatorIiEEEaSB7v160006ERKS3_, symObjAddr: 0xEE0, symBinAddr: 0x100004780, symSize: 0x60 }
  - { offsetInCU: 0x10E09, offset: 0x10E09, size: 0x8, addend: 0x0, symName: __ZNSt3__16vectorI11AStarNode_tNS_9allocatorIS1_EEE9push_backB7v160006ERKS1_, symObjAddr: 0xF40, symBinAddr: 0x1000047E0, symSize: 0x60 }
  - { offsetInCU: 0x10E3F, offset: 0x10E3F, size: 0x8, addend: 0x0, symName: __ZN11AStarNode_tD1Ev, symObjAddr: 0xFA0, symBinAddr: 0x100004840, symSize: 0x20 }
  - { offsetInCU: 0x10E69, offset: 0x10E69, size: 0x8, addend: 0x0, symName: __ZNSt3__16vectorI11AStarNode_tNS_9allocatorIS1_EEEC1ERKS4_, symObjAddr: 0xFC0, symBinAddr: 0x100004860, symSize: 0x30 }
  - { offsetInCU: 0x10EA3, offset: 0x10EA3, size: 0x8, addend: 0x0, symName: __ZNSt3__16vectorI11AStarNode_tNS_9allocatorIS1_EEED1B7v160006Ev, symObjAddr: 0xFF0, symBinAddr: 0x100004890, symSize: 0x20 }
  - { offsetInCU: 0x10ECB, offset: 0x10ECB, size: 0x8, addend: 0x0, symName: __ZNSt3__16vectorIiNS_9allocatorIiEEED1B7v160006Ev, symObjAddr: 0x1010, symBinAddr: 0x1000048B0, symSize: 0x20 }
  - { offsetInCU: 0x10EF3, offset: 0x10EF3, size: 0x8, addend: 0x0, symName: __ZNSt3__16vectorI6node_tNS_9allocatorIS1_EEED1B7v160006Ev, symObjAddr: 0x1030, symBinAddr: 0x1000048D0, symSize: 0x20 }
  - { offsetInCU: 0x10F1B, offset: 0x10F1B, size: 0x8, addend: 0x0, symName: __ZN6node_tD2Ev, symObjAddr: 0x1050, symBinAddr: 0x1000048F0, symSize: 0x20 }
  - { offsetInCU: 0x10F45, offset: 0x10F45, size: 0x8, addend: 0x0, symName: __ZN11AStarNode_tC2Ev, symObjAddr: 0x1070, symBinAddr: 0x100004910, symSize: 0x30 }
  - { offsetInCU: 0x10F6F, offset: 0x10F6F, size: 0x8, addend: 0x0, symName: __ZNSt3__16vectorIdNS_9allocatorIdEEEC1B7v160006Ev, symObjAddr: 0x10A0, symBinAddr: 0x100004940, symSize: 0x20 }
  - { offsetInCU: 0x10F97, offset: 0x10F97, size: 0x8, addend: 0x0, symName: __ZNSt3__16vectorIdNS_9allocatorIdEEEC2B7v160006Ev, symObjAddr: 0x10C0, symBinAddr: 0x100004960, symSize: 0x60 }
  - { offsetInCU: 0x10FC9, offset: 0x10FC9, size: 0x8, addend: 0x0, symName: __ZNSt3__117__compressed_pairIPdNS_9allocatorIdEEEC1B7v160006IDnNS_18__default_init_tagEEEOT_OT0_, symObjAddr: 0x1120, symBinAddr: 0x1000049C0, symSize: 0x30 }
  - { offsetInCU: 0x1101F, offset: 0x1101F, size: 0x8, addend: 0x0, symName: __ZNSt3__117__compressed_pairIPdNS_9allocatorIdEEEC2B7v160006IDnNS_18__default_init_tagEEEOT_OT0_, symObjAddr: 0x1170, symBinAddr: 0x100004A10, symSize: 0x40 }
  - { offsetInCU: 0x11075, offset: 0x11075, size: 0x8, addend: 0x0, symName: __ZNSt3__122__compressed_pair_elemIPdLi0ELb0EEC2B7v160006IDnvEEOT_, symObjAddr: 0x11B0, symBinAddr: 0x100004A50, symSize: 0x20 }
  - { offsetInCU: 0x110B5, offset: 0x110B5, size: 0x8, addend: 0x0, symName: __ZNSt3__122__compressed_pair_elemINS_9allocatorIdEELi1ELb1EEC2B7v160006ENS_18__default_init_tagE, symObjAddr: 0x11D0, symBinAddr: 0x100004A70, symSize: 0x20 }
  - { offsetInCU: 0x110E7, offset: 0x110E7, size: 0x8, addend: 0x0, symName: __ZNSt3__19allocatorIdEC2B7v160006Ev, symObjAddr: 0x11F0, symBinAddr: 0x100004A90, symSize: 0x20 }
  - { offsetInCU: 0x1110F, offset: 0x1110F, size: 0x8, addend: 0x0, symName: __ZNSt3__116__non_trivial_ifILb1ENS_9allocatorIdEEEC2B7v160006Ev, symObjAddr: 0x1210, symBinAddr: 0x100004AB0, symSize: 0x10 }
  - { offsetInCU: 0x11137, offset: 0x11137, size: 0x8, addend: 0x0, symName: __ZNSt16initializer_listIdEC2B7v160006Ev, symObjAddr: 0x1220, symBinAddr: 0x100004AC0, symSize: 0x20 }
  - { offsetInCU: 0x1115F, offset: 0x1115F, size: 0x8, addend: 0x0, symName: __ZN11AStarNode_tD2Ev, symObjAddr: 0x1240, symBinAddr: 0x100004AE0, symSize: 0x30 }
  - { offsetInCU: 0x11189, offset: 0x11189, size: 0x8, addend: 0x0, symName: __ZNSt3__16vectorIdNS_9allocatorIdEEED1B7v160006Ev, symObjAddr: 0x1270, symBinAddr: 0x100004B10, symSize: 0x20 }
  - { offsetInCU: 0x111B1, offset: 0x111B1, size: 0x8, addend: 0x0, symName: __ZNSt3__16vectorIdNS_9allocatorIdEEED2B7v160006Ev, symObjAddr: 0x1290, symBinAddr: 0x100004B30, symSize: 0x40 }
  - { offsetInCU: 0x111D9, offset: 0x111D9, size: 0x8, addend: 0x0, symName: __ZNSt3__16vectorIdNS_9allocatorIdEEE16__destroy_vectorC1ERS3_, symObjAddr: 0x12D0, symBinAddr: 0x100004B70, symSize: 0x30 }
  - { offsetInCU: 0x1120F, offset: 0x1120F, size: 0x8, addend: 0x0, symName: __ZNSt3__16vectorIdNS_9allocatorIdEEE16__destroy_vectorclB7v160006Ev, symObjAddr: 0x1300, symBinAddr: 0x100004BA0, symSize: 0x90 }
  - { offsetInCU: 0x11234, offset: 0x11234, size: 0x8, addend: 0x0, symName: __ZNSt3__16vectorIdNS_9allocatorIdEEE16__destroy_vectorC2ERS3_, symObjAddr: 0x1390, symBinAddr: 0x100004C30, symSize: 0x20 }
  - { offsetInCU: 0x1126A, offset: 0x1126A, size: 0x8, addend: 0x0, symName: __ZNKSt3__16vectorIdNS_9allocatorIdEEE17__annotate_deleteB7v160006Ev, symObjAddr: 0x13B0, symBinAddr: 0x100004C50, symSize: 0xB0 }
  - { offsetInCU: 0x1128E, offset: 0x1128E, size: 0x8, addend: 0x0, symName: __ZNSt3__16vectorIdNS_9allocatorIdEEE7__clearB7v160006Ev, symObjAddr: 0x1470, symBinAddr: 0x100004D10, symSize: 0x20 }
  - { offsetInCU: 0x112B3, offset: 0x112B3, size: 0x8, addend: 0x0, symName: __ZNSt3__116allocator_traitsINS_9allocatorIdEEE10deallocateB7v160006ERS2_Pdm, symObjAddr: 0x1490, symBinAddr: 0x100004D30, symSize: 0x30 }
  - { offsetInCU: 0x112F4, offset: 0x112F4, size: 0x8, addend: 0x0, symName: __ZNSt3__16vectorIdNS_9allocatorIdEEE7__allocB7v160006Ev, symObjAddr: 0x14C0, symBinAddr: 0x100004D60, symSize: 0x20 }
  - { offsetInCU: 0x11318, offset: 0x11318, size: 0x8, addend: 0x0, symName: __ZNKSt3__16vectorIdNS_9allocatorIdEEE8capacityB7v160006Ev, symObjAddr: 0x14E0, symBinAddr: 0x100004D80, symSize: 0x30 }
  - { offsetInCU: 0x1133C, offset: 0x1133C, size: 0x8, addend: 0x0, symName: __ZNKSt3__16vectorIdNS_9allocatorIdEEE31__annotate_contiguous_containerB7v160006EPKvS5_S5_S5_, symObjAddr: 0x1510, symBinAddr: 0x100004DB0, symSize: 0x20 }
  - { offsetInCU: 0x1138C, offset: 0x1138C, size: 0x8, addend: 0x0, symName: __ZNKSt3__16vectorIdNS_9allocatorIdEEE4dataB7v160006Ev, symObjAddr: 0x1530, symBinAddr: 0x100004DD0, symSize: 0x20 }
  - { offsetInCU: 0x113B0, offset: 0x113B0, size: 0x8, addend: 0x0, symName: __ZNKSt3__16vectorIdNS_9allocatorIdEEE4sizeB7v160006Ev, symObjAddr: 0x1550, symBinAddr: 0x100004DF0, symSize: 0x20 }
  - { offsetInCU: 0x113D4, offset: 0x113D4, size: 0x8, addend: 0x0, symName: __ZNSt3__16vectorIdNS_9allocatorIdEEE22__base_destruct_at_endB7v160006EPd, symObjAddr: 0x1580, symBinAddr: 0x100004E20, symSize: 0x80 }
  - { offsetInCU: 0x11417, offset: 0x11417, size: 0x8, addend: 0x0, symName: __ZNSt3__116allocator_traitsINS_9allocatorIdEEE7destroyB7v160006IdvEEvRS2_PT_, symObjAddr: 0x1600, symBinAddr: 0x100004EA0, symSize: 0x30 }
  - { offsetInCU: 0x11453, offset: 0x11453, size: 0x8, addend: 0x0, symName: __ZNSt3__19allocatorIdE7destroyB7v160006EPd, symObjAddr: 0x1630, symBinAddr: 0x100004ED0, symSize: 0x10 }
  - { offsetInCU: 0x11485, offset: 0x11485, size: 0x8, addend: 0x0, symName: __ZNSt3__19allocatorIdE10deallocateB7v160006EPdm, symObjAddr: 0x1640, symBinAddr: 0x100004EE0, symSize: 0x40 }
  - { offsetInCU: 0x114C5, offset: 0x114C5, size: 0x8, addend: 0x0, symName: __ZNSt3__117__compressed_pairIPdNS_9allocatorIdEEE6secondB7v160006Ev, symObjAddr: 0x17A0, symBinAddr: 0x100005040, symSize: 0x20 }
  - { offsetInCU: 0x114E9, offset: 0x114E9, size: 0x8, addend: 0x0, symName: __ZNSt3__122__compressed_pair_elemINS_9allocatorIdEELi1ELb1EE5__getB7v160006Ev, symObjAddr: 0x17C0, symBinAddr: 0x100005060, symSize: 0x10 }
  - { offsetInCU: 0x1150D, offset: 0x1150D, size: 0x8, addend: 0x0, symName: __ZNKSt3__16vectorIdNS_9allocatorIdEEE9__end_capB7v160006Ev, symObjAddr: 0x17D0, symBinAddr: 0x100005070, symSize: 0x20 }
  - { offsetInCU: 0x11531, offset: 0x11531, size: 0x8, addend: 0x0, symName: __ZNKSt3__117__compressed_pairIPdNS_9allocatorIdEEE5firstB7v160006Ev, symObjAddr: 0x17F0, symBinAddr: 0x100005090, symSize: 0x20 }
  - { offsetInCU: 0x11555, offset: 0x11555, size: 0x8, addend: 0x0, symName: __ZNKSt3__122__compressed_pair_elemIPdLi0ELb0EE5__getB7v160006Ev, symObjAddr: 0x1810, symBinAddr: 0x1000050B0, symSize: 0x10 }
  - { offsetInCU: 0x1157A, offset: 0x1157A, size: 0x8, addend: 0x0, symName: __ZNSt3__16vectorI6node_tNS_9allocatorIS1_EEEC2B7v160006Ev, symObjAddr: 0x1820, symBinAddr: 0x1000050C0, symSize: 0x60 }
  - { offsetInCU: 0x115A2, offset: 0x115A2, size: 0x8, addend: 0x0, symName: __ZNSt3__117__compressed_pairIP6node_tNS_9allocatorIS1_EEEC1B7v160006IDnNS_18__default_init_tagEEEOT_OT0_, symObjAddr: 0x1880, symBinAddr: 0x100005120, symSize: 0x30 }
  - { offsetInCU: 0x115F8, offset: 0x115F8, size: 0x8, addend: 0x0, symName: __ZNSt3__117__compressed_pairIP6node_tNS_9allocatorIS1_EEEC2B7v160006IDnNS_18__default_init_tagEEEOT_OT0_, symObjAddr: 0x18C0, symBinAddr: 0x100005160, symSize: 0x40 }
  - { offsetInCU: 0x1164E, offset: 0x1164E, size: 0x8, addend: 0x0, symName: __ZNSt3__122__compressed_pair_elemIP6node_tLi0ELb0EEC2B7v160006IDnvEEOT_, symObjAddr: 0x1900, symBinAddr: 0x1000051A0, symSize: 0x20 }
  - { offsetInCU: 0x1168E, offset: 0x1168E, size: 0x8, addend: 0x0, symName: __ZNSt3__122__compressed_pair_elemINS_9allocatorI6node_tEELi1ELb1EEC2B7v160006ENS_18__default_init_tagE, symObjAddr: 0x1920, symBinAddr: 0x1000051C0, symSize: 0x20 }
  - { offsetInCU: 0x116C0, offset: 0x116C0, size: 0x8, addend: 0x0, symName: __ZNSt3__19allocatorI6node_tEC2B7v160006Ev, symObjAddr: 0x1940, symBinAddr: 0x1000051E0, symSize: 0x20 }
  - { offsetInCU: 0x116E8, offset: 0x116E8, size: 0x8, addend: 0x0, symName: __ZNSt3__116__non_trivial_ifILb1ENS_9allocatorI6node_tEEEC2B7v160006Ev, symObjAddr: 0x1960, symBinAddr: 0x100005200, symSize: 0x10 }
  - { offsetInCU: 0x11710, offset: 0x11710, size: 0x8, addend: 0x0, symName: __ZNSt3__16vectorI6node_tNS_9allocatorIS1_EEED2B7v160006Ev, symObjAddr: 0x1970, symBinAddr: 0x100005210, symSize: 0x40 }
  - { offsetInCU: 0x11738, offset: 0x11738, size: 0x8, addend: 0x0, symName: __ZNSt3__16vectorI6node_tNS_9allocatorIS1_EEE16__destroy_vectorC1ERS4_, symObjAddr: 0x19B0, symBinAddr: 0x100005250, symSize: 0x30 }
  - { offsetInCU: 0x1176E, offset: 0x1176E, size: 0x8, addend: 0x0, symName: __ZNSt3__16vectorI6node_tNS_9allocatorIS1_EEE16__destroy_vectorclB7v160006Ev, symObjAddr: 0x19E0, symBinAddr: 0x100005280, symSize: 0x90 }
  - { offsetInCU: 0x11793, offset: 0x11793, size: 0x8, addend: 0x0, symName: __ZNSt3__16vectorI6node_tNS_9allocatorIS1_EEE16__destroy_vectorC2ERS4_, symObjAddr: 0x1A70, symBinAddr: 0x100005310, symSize: 0x20 }
  - { offsetInCU: 0x117C9, offset: 0x117C9, size: 0x8, addend: 0x0, symName: __ZNKSt3__16vectorI6node_tNS_9allocatorIS1_EEE17__annotate_deleteB7v160006Ev, symObjAddr: 0x1A90, symBinAddr: 0x100005330, symSize: 0xB0 }
  - { offsetInCU: 0x117ED, offset: 0x117ED, size: 0x8, addend: 0x0, symName: __ZNSt3__16vectorI6node_tNS_9allocatorIS1_EEE7__clearB7v160006Ev, symObjAddr: 0x1B50, symBinAddr: 0x1000053F0, symSize: 0x20 }
  - { offsetInCU: 0x11812, offset: 0x11812, size: 0x8, addend: 0x0, symName: __ZNSt3__116allocator_traitsINS_9allocatorI6node_tEEE10deallocateB7v160006ERS3_PS2_m, symObjAddr: 0x1B70, symBinAddr: 0x100005410, symSize: 0x30 }
  - { offsetInCU: 0x11853, offset: 0x11853, size: 0x8, addend: 0x0, symName: __ZNSt3__16vectorI6node_tNS_9allocatorIS1_EEE7__allocB7v160006Ev, symObjAddr: 0x1BA0, symBinAddr: 0x100005440, symSize: 0x20 }
  - { offsetInCU: 0x11877, offset: 0x11877, size: 0x8, addend: 0x0, symName: __ZNKSt3__16vectorI6node_tNS_9allocatorIS1_EEE8capacityB7v160006Ev, symObjAddr: 0x1BC0, symBinAddr: 0x100005460, symSize: 0x40 }
  - { offsetInCU: 0x1189B, offset: 0x1189B, size: 0x8, addend: 0x0, symName: __ZNKSt3__16vectorI6node_tNS_9allocatorIS1_EEE31__annotate_contiguous_containerB7v160006EPKvS6_S6_S6_, symObjAddr: 0x1C00, symBinAddr: 0x1000054A0, symSize: 0x20 }
  - { offsetInCU: 0x118EB, offset: 0x118EB, size: 0x8, addend: 0x0, symName: __ZNKSt3__16vectorI6node_tNS_9allocatorIS1_EEE4dataB7v160006Ev, symObjAddr: 0x1C20, symBinAddr: 0x1000054C0, symSize: 0x20 }
  - { offsetInCU: 0x1190F, offset: 0x1190F, size: 0x8, addend: 0x0, symName: __ZNSt3__16vectorI6node_tNS_9allocatorIS1_EEE22__base_destruct_at_endB7v160006EPS1_, symObjAddr: 0x1C50, symBinAddr: 0x1000054F0, symSize: 0x80 }
  - { offsetInCU: 0x11952, offset: 0x11952, size: 0x8, addend: 0x0, symName: __ZNSt3__116allocator_traitsINS_9allocatorI6node_tEEE7destroyB7v160006IS2_vEEvRS3_PT_, symObjAddr: 0x1CD0, symBinAddr: 0x100005570, symSize: 0x30 }
  - { offsetInCU: 0x1198E, offset: 0x1198E, size: 0x8, addend: 0x0, symName: __ZNSt3__19allocatorI6node_tE7destroyB7v160006EPS1_, symObjAddr: 0x1D00, symBinAddr: 0x1000055A0, symSize: 0x20 }
  - { offsetInCU: 0x119C0, offset: 0x119C0, size: 0x8, addend: 0x0, symName: __ZNSt3__19allocatorI6node_tE10deallocateB7v160006EPS1_m, symObjAddr: 0x1D20, symBinAddr: 0x1000055C0, symSize: 0x50 }
  - { offsetInCU: 0x11A00, offset: 0x11A00, size: 0x8, addend: 0x0, symName: __ZNSt3__117__compressed_pairIP6node_tNS_9allocatorIS1_EEE6secondB7v160006Ev, symObjAddr: 0x1D70, symBinAddr: 0x100005610, symSize: 0x20 }
  - { offsetInCU: 0x11A24, offset: 0x11A24, size: 0x8, addend: 0x0, symName: __ZNSt3__122__compressed_pair_elemINS_9allocatorI6node_tEELi1ELb1EE5__getB7v160006Ev, symObjAddr: 0x1D90, symBinAddr: 0x100005630, symSize: 0x10 }
  - { offsetInCU: 0x11A48, offset: 0x11A48, size: 0x8, addend: 0x0, symName: __ZNKSt3__16vectorI6node_tNS_9allocatorIS1_EEE9__end_capB7v160006Ev, symObjAddr: 0x1DA0, symBinAddr: 0x100005640, symSize: 0x20 }
  - { offsetInCU: 0x11A6C, offset: 0x11A6C, size: 0x8, addend: 0x0, symName: __ZNKSt3__117__compressed_pairIP6node_tNS_9allocatorIS1_EEE5firstB7v160006Ev, symObjAddr: 0x1DC0, symBinAddr: 0x100005660, symSize: 0x20 }
  - { offsetInCU: 0x11A90, offset: 0x11A90, size: 0x8, addend: 0x0, symName: __ZNKSt3__122__compressed_pair_elemIP6node_tLi0ELb0EE5__getB7v160006Ev, symObjAddr: 0x1DE0, symBinAddr: 0x100005680, symSize: 0x10 }
  - { offsetInCU: 0x11AB5, offset: 0x11AB5, size: 0x8, addend: 0x0, symName: __ZNSt3__16vectorIiNS_9allocatorIiEEEC2B7v160006Ev, symObjAddr: 0x1DF0, symBinAddr: 0x100005690, symSize: 0x60 }
  - { offsetInCU: 0x11ADD, offset: 0x11ADD, size: 0x8, addend: 0x0, symName: __ZNSt3__117__compressed_pairIPiNS_9allocatorIiEEEC1B7v160006IDnNS_18__default_init_tagEEEOT_OT0_, symObjAddr: 0x1E50, symBinAddr: 0x1000056F0, symSize: 0x30 }
  - { offsetInCU: 0x11B33, offset: 0x11B33, size: 0x8, addend: 0x0, symName: __ZNSt3__117__compressed_pairIPiNS_9allocatorIiEEEC2B7v160006IDnNS_18__default_init_tagEEEOT_OT0_, symObjAddr: 0x1E90, symBinAddr: 0x100005730, symSize: 0x40 }
  - { offsetInCU: 0x11B89, offset: 0x11B89, size: 0x8, addend: 0x0, symName: __ZNSt3__122__compressed_pair_elemIPiLi0ELb0EEC2B7v160006IDnvEEOT_, symObjAddr: 0x1ED0, symBinAddr: 0x100005770, symSize: 0x20 }
  - { offsetInCU: 0x11BC9, offset: 0x11BC9, size: 0x8, addend: 0x0, symName: __ZNSt3__122__compressed_pair_elemINS_9allocatorIiEELi1ELb1EEC2B7v160006ENS_18__default_init_tagE, symObjAddr: 0x1EF0, symBinAddr: 0x100005790, symSize: 0x20 }
  - { offsetInCU: 0x11BFB, offset: 0x11BFB, size: 0x8, addend: 0x0, symName: __ZNSt3__19allocatorIiEC2B7v160006Ev, symObjAddr: 0x1F10, symBinAddr: 0x1000057B0, symSize: 0x20 }
  - { offsetInCU: 0x11C23, offset: 0x11C23, size: 0x8, addend: 0x0, symName: __ZNSt3__116__non_trivial_ifILb1ENS_9allocatorIiEEEC2B7v160006Ev, symObjAddr: 0x1F30, symBinAddr: 0x1000057D0, symSize: 0x10 }
  - { offsetInCU: 0x11C4B, offset: 0x11C4B, size: 0x8, addend: 0x0, symName: __ZNSt3__16vectorIiNS_9allocatorIiEEED2B7v160006Ev, symObjAddr: 0x1F40, symBinAddr: 0x1000057E0, symSize: 0x40 }
  - { offsetInCU: 0x11C73, offset: 0x11C73, size: 0x8, addend: 0x0, symName: __ZNSt3__16vectorIiNS_9allocatorIiEEE16__destroy_vectorC1ERS3_, symObjAddr: 0x1F80, symBinAddr: 0x100005820, symSize: 0x30 }
  - { offsetInCU: 0x11CA9, offset: 0x11CA9, size: 0x8, addend: 0x0, symName: __ZNSt3__16vectorIiNS_9allocatorIiEEE16__destroy_vectorclB7v160006Ev, symObjAddr: 0x1FB0, symBinAddr: 0x100005850, symSize: 0x90 }
  - { offsetInCU: 0x11CCE, offset: 0x11CCE, size: 0x8, addend: 0x0, symName: __ZNSt3__16vectorIiNS_9allocatorIiEEE16__destroy_vectorC2ERS3_, symObjAddr: 0x2040, symBinAddr: 0x1000058E0, symSize: 0x20 }
  - { offsetInCU: 0x11D04, offset: 0x11D04, size: 0x8, addend: 0x0, symName: __ZNKSt3__16vectorIiNS_9allocatorIiEEE17__annotate_deleteB7v160006Ev, symObjAddr: 0x2060, symBinAddr: 0x100005900, symSize: 0xB0 }
  - { offsetInCU: 0x11D28, offset: 0x11D28, size: 0x8, addend: 0x0, symName: __ZNSt3__16vectorIiNS_9allocatorIiEEE7__clearB7v160006Ev, symObjAddr: 0x2120, symBinAddr: 0x1000059C0, symSize: 0x20 }
  - { offsetInCU: 0x11D4D, offset: 0x11D4D, size: 0x8, addend: 0x0, symName: __ZNSt3__116allocator_traitsINS_9allocatorIiEEE10deallocateB7v160006ERS2_Pim, symObjAddr: 0x2140, symBinAddr: 0x1000059E0, symSize: 0x30 }
  - { offsetInCU: 0x11D8E, offset: 0x11D8E, size: 0x8, addend: 0x0, symName: __ZNSt3__16vectorIiNS_9allocatorIiEEE7__allocB7v160006Ev, symObjAddr: 0x2170, symBinAddr: 0x100005A10, symSize: 0x20 }
  - { offsetInCU: 0x11DB2, offset: 0x11DB2, size: 0x8, addend: 0x0, symName: __ZNKSt3__16vectorIiNS_9allocatorIiEEE8capacityB7v160006Ev, symObjAddr: 0x2190, symBinAddr: 0x100005A30, symSize: 0x30 }
  - { offsetInCU: 0x11DD6, offset: 0x11DD6, size: 0x8, addend: 0x0, symName: __ZNKSt3__16vectorIiNS_9allocatorIiEEE31__annotate_contiguous_containerB7v160006EPKvS5_S5_S5_, symObjAddr: 0x21C0, symBinAddr: 0x100005A60, symSize: 0x20 }
  - { offsetInCU: 0x11E26, offset: 0x11E26, size: 0x8, addend: 0x0, symName: __ZNKSt3__16vectorIiNS_9allocatorIiEEE4dataB7v160006Ev, symObjAddr: 0x21E0, symBinAddr: 0x100005A80, symSize: 0x20 }
  - { offsetInCU: 0x11E4A, offset: 0x11E4A, size: 0x8, addend: 0x0, symName: __ZNSt3__16vectorIiNS_9allocatorIiEEE22__base_destruct_at_endB7v160006EPi, symObjAddr: 0x2210, symBinAddr: 0x100005AB0, symSize: 0x80 }
  - { offsetInCU: 0x11E8D, offset: 0x11E8D, size: 0x8, addend: 0x0, symName: __ZNSt3__116allocator_traitsINS_9allocatorIiEEE7destroyB7v160006IivEEvRS2_PT_, symObjAddr: 0x2290, symBinAddr: 0x100005B30, symSize: 0x30 }
  - { offsetInCU: 0x11EC9, offset: 0x11EC9, size: 0x8, addend: 0x0, symName: __ZNSt3__19allocatorIiE7destroyB7v160006EPi, symObjAddr: 0x22C0, symBinAddr: 0x100005B60, symSize: 0x10 }
  - { offsetInCU: 0x11EFB, offset: 0x11EFB, size: 0x8, addend: 0x0, symName: __ZNSt3__19allocatorIiE10deallocateB7v160006EPim, symObjAddr: 0x22D0, symBinAddr: 0x100005B70, symSize: 0x40 }
  - { offsetInCU: 0x11F3B, offset: 0x11F3B, size: 0x8, addend: 0x0, symName: __ZNSt3__117__compressed_pairIPiNS_9allocatorIiEEE6secondB7v160006Ev, symObjAddr: 0x2310, symBinAddr: 0x100005BB0, symSize: 0x20 }
  - { offsetInCU: 0x11F5F, offset: 0x11F5F, size: 0x8, addend: 0x0, symName: __ZNSt3__122__compressed_pair_elemINS_9allocatorIiEELi1ELb1EE5__getB7v160006Ev, symObjAddr: 0x2330, symBinAddr: 0x100005BD0, symSize: 0x10 }
  - { offsetInCU: 0x11F83, offset: 0x11F83, size: 0x8, addend: 0x0, symName: __ZNKSt3__16vectorIiNS_9allocatorIiEEE9__end_capB7v160006Ev, symObjAddr: 0x2340, symBinAddr: 0x100005BE0, symSize: 0x20 }
  - { offsetInCU: 0x11FA7, offset: 0x11FA7, size: 0x8, addend: 0x0, symName: __ZNKSt3__117__compressed_pairIPiNS_9allocatorIiEEE5firstB7v160006Ev, symObjAddr: 0x2360, symBinAddr: 0x100005C00, symSize: 0x20 }
  - { offsetInCU: 0x11FCB, offset: 0x11FCB, size: 0x8, addend: 0x0, symName: __ZNKSt3__122__compressed_pair_elemIPiLi0ELb0EE5__getB7v160006Ev, symObjAddr: 0x2380, symBinAddr: 0x100005C20, symSize: 0x10 }
  - { offsetInCU: 0x11FEF, offset: 0x11FEF, size: 0x8, addend: 0x0, symName: __ZNSt3__16vectorI6node_tNS_9allocatorIS1_EEE9__end_capB7v160006Ev, symObjAddr: 0x2390, symBinAddr: 0x100005C30, symSize: 0x20 }
  - { offsetInCU: 0x12013, offset: 0x12013, size: 0x8, addend: 0x0, symName: __ZNSt3__16vectorI6node_tNS_9allocatorIS1_EEE22__construct_one_at_endB7v160006IJRKS1_EEEvDpOT_, symObjAddr: 0x23B0, symBinAddr: 0x100005C50, symSize: 0x90 }
  - { offsetInCU: 0x12060, offset: 0x12060, size: 0x8, addend: 0x0, symName: __ZNSt3__16vectorI6node_tNS_9allocatorIS1_EEE21__push_back_slow_pathIRKS1_EEvOT_, symObjAddr: 0x2440, symBinAddr: 0x100005CE0, symSize: 0xD0 }
  - { offsetInCU: 0x120BC, offset: 0x120BC, size: 0x8, addend: 0x0, symName: __ZNSt3__117__compressed_pairIP6node_tNS_9allocatorIS1_EEE5firstB7v160006Ev, symObjAddr: 0x2510, symBinAddr: 0x100005DB0, symSize: 0x20 }
  - { offsetInCU: 0x120E0, offset: 0x120E0, size: 0x8, addend: 0x0, symName: __ZNSt3__122__compressed_pair_elemIP6node_tLi0ELb0EE5__getB7v160006Ev, symObjAddr: 0x2530, symBinAddr: 0x100005DD0, symSize: 0x10 }
  - { offsetInCU: 0x1211E, offset: 0x1211E, size: 0x8, addend: 0x0, symName: __ZNSt3__16vectorI6node_tNS_9allocatorIS1_EEE21_ConstructTransactionC1B7v160006ERS4_m, symObjAddr: 0x2540, symBinAddr: 0x100005DE0, symSize: 0x30 }
  - { offsetInCU: 0x12164, offset: 0x12164, size: 0x8, addend: 0x0, symName: __ZNSt3__116allocator_traitsINS_9allocatorI6node_tEEE9constructB7v160006IS2_JRKS2_EvEEvRS3_PT_DpOT0_, symObjAddr: 0x2570, symBinAddr: 0x100005E10, symSize: 0x30 }
  - { offsetInCU: 0x121BB, offset: 0x121BB, size: 0x8, addend: 0x0, symName: __ZNSt3__16vectorI6node_tNS_9allocatorIS1_EEE21_ConstructTransactionD1B7v160006Ev, symObjAddr: 0x25A0, symBinAddr: 0x100005E40, symSize: 0x20 }
  - { offsetInCU: 0x121E3, offset: 0x121E3, size: 0x8, addend: 0x0, symName: __ZNSt3__16vectorI6node_tNS_9allocatorIS1_EEE21_ConstructTransactionC2B7v160006ERS4_m, symObjAddr: 0x25C0, symBinAddr: 0x100005E60, symSize: 0x40 }
  - { offsetInCU: 0x12228, offset: 0x12228, size: 0x8, addend: 0x0, symName: __ZNSt3__19allocatorI6node_tE9constructB7v160006IS1_JRKS1_EEEvPT_DpOT0_, symObjAddr: 0x2600, symBinAddr: 0x100005EA0, symSize: 0x30 }
  - { offsetInCU: 0x1227D, offset: 0x1227D, size: 0x8, addend: 0x0, symName: __ZN6node_tC1ERKS_, symObjAddr: 0x2630, symBinAddr: 0x100005ED0, symSize: 0x30 }
  - { offsetInCU: 0x122B0, offset: 0x122B0, size: 0x8, addend: 0x0, symName: __ZN6node_tC2ERKS_, symObjAddr: 0x2660, symBinAddr: 0x100005F00, symSize: 0x50 }
  - { offsetInCU: 0x122E3, offset: 0x122E3, size: 0x8, addend: 0x0, symName: __ZNSt3__16vectorIiNS_9allocatorIiEEEC1ERKS3_, symObjAddr: 0x26B0, symBinAddr: 0x100005F50, symSize: 0x30 }
  - { offsetInCU: 0x1231D, offset: 0x1231D, size: 0x8, addend: 0x0, symName: __ZNSt3__16vectorIiNS_9allocatorIiEEEC2ERKS3_, symObjAddr: 0x26E0, symBinAddr: 0x100005F80, symSize: 0x110 }
  - { offsetInCU: 0x12386, offset: 0x12386, size: 0x8, addend: 0x0, symName: __ZNSt3__116allocator_traitsINS_9allocatorIiEEE37select_on_container_copy_constructionB7v160006IS2_vvEES2_RKS2_, symObjAddr: 0x27F0, symBinAddr: 0x100006090, symSize: 0x10 }
  - { offsetInCU: 0x123B4, offset: 0x123B4, size: 0x8, addend: 0x0, symName: __ZNKSt3__16vectorIiNS_9allocatorIiEEE7__allocB7v160006Ev, symObjAddr: 0x2800, symBinAddr: 0x1000060A0, symSize: 0x20 }
  - { offsetInCU: 0x123DE, offset: 0x123DE, size: 0x8, addend: 0x0, symName: __ZNSt3__117__compressed_pairIPiNS_9allocatorIiEEEC1B7v160006IDnS3_EEOT_OT0_, symObjAddr: 0x2820, symBinAddr: 0x1000060C0, symSize: 0x30 }
  - { offsetInCU: 0x12433, offset: 0x12433, size: 0x8, addend: 0x0, symName: __ZNSt3__16vectorIiNS_9allocatorIiEEE11__vallocateB7v160006Em, symObjAddr: 0x2890, symBinAddr: 0x100006130, symSize: 0xA0 }
  - { offsetInCU: 0x12475, offset: 0x12475, size: 0x8, addend: 0x0, symName: __ZNSt3__16vectorIiNS_9allocatorIiEEE18__construct_at_endIPiLi0EEEvT_S6_m, symObjAddr: 0x2930, symBinAddr: 0x1000061D0, symSize: 0x90 }
  - { offsetInCU: 0x124E6, offset: 0x124E6, size: 0x8, addend: 0x0, symName: __ZNSt3__128__exception_guard_exceptionsINS_6vectorIiNS_9allocatorIiEEE16__destroy_vectorEE10__completeB7v160006Ev, symObjAddr: 0x29C0, symBinAddr: 0x100006260, symSize: 0x20 }
  - { offsetInCU: 0x1250B, offset: 0x1250B, size: 0x8, addend: 0x0, symName: __ZNSt3__128__exception_guard_exceptionsINS_6vectorIiNS_9allocatorIiEEE16__destroy_vectorEED1B7v160006Ev, symObjAddr: 0x29E0, symBinAddr: 0x100006280, symSize: 0x20 }
  - { offsetInCU: 0x12532, offset: 0x12532, size: 0x8, addend: 0x0, symName: __ZNKSt3__117__compressed_pairIPiNS_9allocatorIiEEE6secondB7v160006Ev, symObjAddr: 0x2A00, symBinAddr: 0x1000062A0, symSize: 0x20 }
  - { offsetInCU: 0x12556, offset: 0x12556, size: 0x8, addend: 0x0, symName: __ZNKSt3__122__compressed_pair_elemINS_9allocatorIiEELi1ELb1EE5__getB7v160006Ev, symObjAddr: 0x2A20, symBinAddr: 0x1000062C0, symSize: 0x10 }
  - { offsetInCU: 0x1257B, offset: 0x1257B, size: 0x8, addend: 0x0, symName: __ZNSt3__117__compressed_pairIPiNS_9allocatorIiEEEC2B7v160006IDnS3_EEOT_OT0_, symObjAddr: 0x2A30, symBinAddr: 0x1000062D0, symSize: 0x40 }
  - { offsetInCU: 0x125D1, offset: 0x125D1, size: 0x8, addend: 0x0, symName: __ZNSt3__122__compressed_pair_elemINS_9allocatorIiEELi1ELb1EEC2B7v160006IS2_vEEOT_, symObjAddr: 0x2A70, symBinAddr: 0x100006310, symSize: 0x10 }
  - { offsetInCU: 0x12611, offset: 0x12611, size: 0x8, addend: 0x0, symName: __ZNSt3__128__exception_guard_exceptionsINS_6vectorIiNS_9allocatorIiEEE16__destroy_vectorEEC1B7v160006ES5_, symObjAddr: 0x2A80, symBinAddr: 0x100006320, symSize: 0x30 }
  - { offsetInCU: 0x12647, offset: 0x12647, size: 0x8, addend: 0x0, symName: __ZNSt3__128__exception_guard_exceptionsINS_6vectorIiNS_9allocatorIiEEE16__destroy_vectorEEC2B7v160006ES5_, symObjAddr: 0x2AB0, symBinAddr: 0x100006350, symSize: 0x20 }
  - { offsetInCU: 0x1267C, offset: 0x1267C, size: 0x8, addend: 0x0, symName: __ZNKSt3__16vectorIiNS_9allocatorIiEEE8max_sizeEv, symObjAddr: 0x2AD0, symBinAddr: 0x100006370, symSize: 0x60 }
  - { offsetInCU: 0x126A2, offset: 0x126A2, size: 0x8, addend: 0x0, symName: __ZNKSt3__16vectorIiNS_9allocatorIiEEE20__throw_length_errorB7v160006Ev, symObjAddr: 0x2B30, symBinAddr: 0x1000063D0, symSize: 0x20 }
  - { offsetInCU: 0x126C6, offset: 0x126C6, size: 0x8, addend: 0x0, symName: __ZNSt3__16vectorIiNS_9allocatorIiEEE9__end_capB7v160006Ev, symObjAddr: 0x2B90, symBinAddr: 0x100006430, symSize: 0x20 }
  - { offsetInCU: 0x126EA, offset: 0x126EA, size: 0x8, addend: 0x0, symName: __ZNKSt3__16vectorIiNS_9allocatorIiEEE14__annotate_newB7v160006Em, symObjAddr: 0x2BB0, symBinAddr: 0x100006450, symSize: 0xB0 }
  - { offsetInCU: 0x1271E, offset: 0x1271E, size: 0x8, addend: 0x0, symName: __ZNSt3__116allocator_traitsINS_9allocatorIiEEE8max_sizeB7v160006IS2_vEEmRKS2_, symObjAddr: 0x2C90, symBinAddr: 0x100006530, symSize: 0x20 }
  - { offsetInCU: 0x1274C, offset: 0x1274C, size: 0x8, addend: 0x0, symName: __ZNSt3__114numeric_limitsIlE3maxB7v160006Ev, symObjAddr: 0x2CB0, symBinAddr: 0x100006550, symSize: 0x10 }
  - { offsetInCU: 0x12773, offset: 0x12773, size: 0x8, addend: 0x0, symName: __ZNKSt3__16__lessImmEclB7v160006ERKmS3_, symObjAddr: 0x2D10, symBinAddr: 0x1000065B0, symSize: 0x30 }
  - { offsetInCU: 0x127B3, offset: 0x127B3, size: 0x8, addend: 0x0, symName: __ZNKSt3__19allocatorIiE8max_sizeB7v160006Ev, symObjAddr: 0x2D40, symBinAddr: 0x1000065E0, symSize: 0x20 }
  - { offsetInCU: 0x127D8, offset: 0x127D8, size: 0x8, addend: 0x0, symName: __ZNSt3__123__libcpp_numeric_limitsIlLb1EE3maxB7v160006Ev, symObjAddr: 0x2D60, symBinAddr: 0x100006600, symSize: 0x10 }
  - { offsetInCU: 0x127EC, offset: 0x127EC, size: 0x8, addend: 0x0, symName: __ZNSt12length_errorC1B7v160006EPKc, symObjAddr: 0x2DE0, symBinAddr: 0x100006680, symSize: 0x30 }
  - { offsetInCU: 0x12822, offset: 0x12822, size: 0x8, addend: 0x0, symName: __ZNSt12length_errorC2B7v160006EPKc, symObjAddr: 0x2E10, symBinAddr: 0x1000066B0, symSize: 0x40 }
  - { offsetInCU: 0x12857, offset: 0x12857, size: 0x8, addend: 0x0, symName: __ZNSt3__19allocatorIiE8allocateB7v160006Em, symObjAddr: 0x2E50, symBinAddr: 0x1000066F0, symSize: 0x50 }
  - { offsetInCU: 0x12889, offset: 0x12889, size: 0x8, addend: 0x0, symName: __ZNSt3__117__compressed_pairIPiNS_9allocatorIiEEE5firstB7v160006Ev, symObjAddr: 0x2F90, symBinAddr: 0x100006830, symSize: 0x20 }
  - { offsetInCU: 0x128AD, offset: 0x128AD, size: 0x8, addend: 0x0, symName: __ZNSt3__122__compressed_pair_elemIPiLi0ELb0EE5__getB7v160006Ev, symObjAddr: 0x2FB0, symBinAddr: 0x100006850, symSize: 0x10 }
  - { offsetInCU: 0x128EB, offset: 0x128EB, size: 0x8, addend: 0x0, symName: __ZNSt3__16vectorIiNS_9allocatorIiEEE21_ConstructTransactionC1B7v160006ERS3_m, symObjAddr: 0x2FC0, symBinAddr: 0x100006860, symSize: 0x30 }
  - { offsetInCU: 0x12931, offset: 0x12931, size: 0x8, addend: 0x0, symName: __ZNSt3__16vectorIiNS_9allocatorIiEEE21_ConstructTransactionD1B7v160006Ev, symObjAddr: 0x30F0, symBinAddr: 0x100006990, symSize: 0x20 }
  - { offsetInCU: 0x12959, offset: 0x12959, size: 0x8, addend: 0x0, symName: __ZNSt3__16vectorIiNS_9allocatorIiEEE21_ConstructTransactionC2B7v160006ERS3_m, symObjAddr: 0x3110, symBinAddr: 0x1000069B0, symSize: 0x40 }
  - { offsetInCU: 0x1299F, offset: 0x1299F, size: 0x8, addend: 0x0, symName: __ZNSt3__129_AllocatorDestroyRangeReverseINS_9allocatorIiEEPiEC1B7v160006ERS2_RS3_S6_, symObjAddr: 0x31B0, symBinAddr: 0x100006A50, symSize: 0x40 }
  - { offsetInCU: 0x129F4, offset: 0x129F4, size: 0x8, addend: 0x0, symName: __ZNSt3__116allocator_traitsINS_9allocatorIiEEE9constructB7v160006IiJRiEvEEvRS2_PT_DpOT0_, symObjAddr: 0x31F0, symBinAddr: 0x100006A90, symSize: 0x30 }
  - { offsetInCU: 0x12A4A, offset: 0x12A4A, size: 0x8, addend: 0x0, symName: __ZNSt3__128__exception_guard_exceptionsINS_29_AllocatorDestroyRangeReverseINS_9allocatorIiEEPiEEE10__completeB7v160006Ev, symObjAddr: 0x3220, symBinAddr: 0x100006AC0, symSize: 0x20 }
  - { offsetInCU: 0x12A6F, offset: 0x12A6F, size: 0x8, addend: 0x0, symName: __ZNSt3__128__exception_guard_exceptionsINS_29_AllocatorDestroyRangeReverseINS_9allocatorIiEEPiEEED1B7v160006Ev, symObjAddr: 0x3240, symBinAddr: 0x100006AE0, symSize: 0x20 }
  - { offsetInCU: 0x12A97, offset: 0x12A97, size: 0x8, addend: 0x0, symName: __ZNSt3__128__exception_guard_exceptionsINS_29_AllocatorDestroyRangeReverseINS_9allocatorIiEEPiEEEC1B7v160006ES5_, symObjAddr: 0x3260, symBinAddr: 0x100006B00, symSize: 0x40 }
  - { offsetInCU: 0x12ACD, offset: 0x12ACD, size: 0x8, addend: 0x0, symName: __ZNSt3__128__exception_guard_exceptionsINS_29_AllocatorDestroyRangeReverseINS_9allocatorIiEEPiEEEC2B7v160006ES5_, symObjAddr: 0x32A0, symBinAddr: 0x100006B40, symSize: 0x30 }
  - { offsetInCU: 0x12B03, offset: 0x12B03, size: 0x8, addend: 0x0, symName: __ZNSt3__129_AllocatorDestroyRangeReverseINS_9allocatorIiEEPiEC2B7v160006ERS2_RS3_S6_, symObjAddr: 0x32D0, symBinAddr: 0x100006B70, symSize: 0x40 }
  - { offsetInCU: 0x12B57, offset: 0x12B57, size: 0x8, addend: 0x0, symName: __ZNSt3__19allocatorIiE9constructB7v160006IiJRiEEEvPT_DpOT0_, symObjAddr: 0x3310, symBinAddr: 0x100006BB0, symSize: 0x20 }
  - { offsetInCU: 0x12BAC, offset: 0x12BAC, size: 0x8, addend: 0x0, symName: __ZNSt3__128__exception_guard_exceptionsINS_29_AllocatorDestroyRangeReverseINS_9allocatorIiEEPiEEED2B7v160006Ev, symObjAddr: 0x3330, symBinAddr: 0x100006BD0, symSize: 0x40 }
  - { offsetInCU: 0x12BD3, offset: 0x12BD3, size: 0x8, addend: 0x0, symName: __ZNKSt3__129_AllocatorDestroyRangeReverseINS_9allocatorIiEEPiEclB7v160006Ev, symObjAddr: 0x3370, symBinAddr: 0x100006C10, symSize: 0x60 }
  - { offsetInCU: 0x12BF8, offset: 0x12BF8, size: 0x8, addend: 0x0, symName: __ZNSt3__116reverse_iteratorIPiEC1B7v160006ES1_, symObjAddr: 0x3440, symBinAddr: 0x100006CE0, symSize: 0x30 }
  - { offsetInCU: 0x12C2D, offset: 0x12C2D, size: 0x8, addend: 0x0, symName: __ZNSt3__116reverse_iteratorIPiEppB7v160006Ev, symObjAddr: 0x34D0, symBinAddr: 0x100006D70, symSize: 0x20 }
  - { offsetInCU: 0x12C51, offset: 0x12C51, size: 0x8, addend: 0x0, symName: __ZNKSt3__116reverse_iteratorIPiE4baseB7v160006Ev, symObjAddr: 0x34F0, symBinAddr: 0x100006D90, symSize: 0x20 }
  - { offsetInCU: 0x12C7B, offset: 0x12C7B, size: 0x8, addend: 0x0, symName: __ZNSt3__119__to_address_helperINS_16reverse_iteratorIPiEEvE6__callB7v160006ERKS3_, symObjAddr: 0x3510, symBinAddr: 0x100006DB0, symSize: 0x40 }
  - { offsetInCU: 0x12C9D, offset: 0x12C9D, size: 0x8, addend: 0x0, symName: __ZNKSt3__116reverse_iteratorIPiEptB7v160006Ev, symObjAddr: 0x3550, symBinAddr: 0x100006DF0, symSize: 0x20 }
  - { offsetInCU: 0x12CC1, offset: 0x12CC1, size: 0x8, addend: 0x0, symName: __ZNKSt3__116reverse_iteratorIPiEdeB7v160006Ev, symObjAddr: 0x3570, symBinAddr: 0x100006E10, symSize: 0x30 }
  - { offsetInCU: 0x12CF4, offset: 0x12CF4, size: 0x8, addend: 0x0, symName: __ZNSt3__116reverse_iteratorIPiEC2B7v160006ES1_, symObjAddr: 0x35A0, symBinAddr: 0x100006E40, symSize: 0x30 }
  - { offsetInCU: 0x12D2A, offset: 0x12D2A, size: 0x8, addend: 0x0, symName: __ZNSt3__16vectorIiNS_9allocatorIiEEE21_ConstructTransactionD2B7v160006Ev, symObjAddr: 0x35D0, symBinAddr: 0x100006E70, symSize: 0x20 }
  - { offsetInCU: 0x12D52, offset: 0x12D52, size: 0x8, addend: 0x0, symName: __ZNSt3__128__exception_guard_exceptionsINS_6vectorIiNS_9allocatorIiEEE16__destroy_vectorEED2B7v160006Ev, symObjAddr: 0x35F0, symBinAddr: 0x100006E90, symSize: 0x40 }
  - { offsetInCU: 0x12D7A, offset: 0x12D7A, size: 0x8, addend: 0x0, symName: __ZNSt3__16vectorI6node_tNS_9allocatorIS1_EEE21_ConstructTransactionD2B7v160006Ev, symObjAddr: 0x3630, symBinAddr: 0x100006ED0, symSize: 0x20 }
  - { offsetInCU: 0x12DA1, offset: 0x12DA1, size: 0x8, addend: 0x0, symName: __ZNKSt3__16vectorI6node_tNS_9allocatorIS1_EEE11__recommendB7v160006Em, symObjAddr: 0x3650, symBinAddr: 0x100006EF0, symSize: 0xA0 }
  - { offsetInCU: 0x12DF5, offset: 0x12DF5, size: 0x8, addend: 0x0, symName: __ZNSt3__114__split_bufferI6node_tRNS_9allocatorIS1_EEEC1EmmS4_, symObjAddr: 0x36F0, symBinAddr: 0x100006F90, symSize: 0x40 }
  - { offsetInCU: 0x12E4A, offset: 0x12E4A, size: 0x8, addend: 0x0, symName: __ZNSt3__114__split_bufferI6node_tRNS_9allocatorIS1_EEED1Ev, symObjAddr: 0x3860, symBinAddr: 0x100007100, symSize: 0x20 }
  - { offsetInCU: 0x12E74, offset: 0x12E74, size: 0x8, addend: 0x0, symName: __ZNKSt3__16vectorI6node_tNS_9allocatorIS1_EEE8max_sizeEv, symObjAddr: 0x3880, symBinAddr: 0x100007120, symSize: 0x60 }
  - { offsetInCU: 0x12E9A, offset: 0x12E9A, size: 0x8, addend: 0x0, symName: __ZNKSt3__16vectorI6node_tNS_9allocatorIS1_EEE20__throw_length_errorB7v160006Ev, symObjAddr: 0x38E0, symBinAddr: 0x100007180, symSize: 0x20 }
  - { offsetInCU: 0x12EC9, offset: 0x12EC9, size: 0x8, addend: 0x0, symName: __ZNSt3__116allocator_traitsINS_9allocatorI6node_tEEE8max_sizeB7v160006IS3_vEEmRKS3_, symObjAddr: 0x3930, symBinAddr: 0x1000071D0, symSize: 0x20 }
  - { offsetInCU: 0x12EF6, offset: 0x12EF6, size: 0x8, addend: 0x0, symName: __ZNKSt3__16vectorI6node_tNS_9allocatorIS1_EEE7__allocB7v160006Ev, symObjAddr: 0x3950, symBinAddr: 0x1000071F0, symSize: 0x20 }
  - { offsetInCU: 0x12F1A, offset: 0x12F1A, size: 0x8, addend: 0x0, symName: __ZNKSt3__19allocatorI6node_tE8max_sizeB7v160006Ev, symObjAddr: 0x3970, symBinAddr: 0x100007210, symSize: 0x20 }
  - { offsetInCU: 0x12F3E, offset: 0x12F3E, size: 0x8, addend: 0x0, symName: __ZNKSt3__117__compressed_pairIP6node_tNS_9allocatorIS1_EEE6secondB7v160006Ev, symObjAddr: 0x3990, symBinAddr: 0x100007230, symSize: 0x20 }
  - { offsetInCU: 0x12F62, offset: 0x12F62, size: 0x8, addend: 0x0, symName: __ZNKSt3__122__compressed_pair_elemINS_9allocatorI6node_tEELi1ELb1EE5__getB7v160006Ev, symObjAddr: 0x39B0, symBinAddr: 0x100007250, symSize: 0x10 }
  - { offsetInCU: 0x12F87, offset: 0x12F87, size: 0x8, addend: 0x0, symName: __ZNSt3__114__split_bufferI6node_tRNS_9allocatorIS1_EEEC2EmmS4_, symObjAddr: 0x3A10, symBinAddr: 0x1000072B0, symSize: 0xC0 }
  - { offsetInCU: 0x12FF9, offset: 0x12FF9, size: 0x8, addend: 0x0, symName: __ZNSt3__117__compressed_pairIP6node_tRNS_9allocatorIS1_EEEC1B7v160006IDnS5_EEOT_OT0_, symObjAddr: 0x3AD0, symBinAddr: 0x100007370, symSize: 0x30 }
  - { offsetInCU: 0x1304E, offset: 0x1304E, size: 0x8, addend: 0x0, symName: __ZNSt3__114__split_bufferI6node_tRNS_9allocatorIS1_EEE7__allocB7v160006Ev, symObjAddr: 0x3B40, symBinAddr: 0x1000073E0, symSize: 0x20 }
  - { offsetInCU: 0x13072, offset: 0x13072, size: 0x8, addend: 0x0, symName: __ZNSt3__114__split_bufferI6node_tRNS_9allocatorIS1_EEE9__end_capB7v160006Ev, symObjAddr: 0x3B60, symBinAddr: 0x100007400, symSize: 0x20 }
  - { offsetInCU: 0x13097, offset: 0x13097, size: 0x8, addend: 0x0, symName: __ZNSt3__117__compressed_pairIP6node_tRNS_9allocatorIS1_EEEC2B7v160006IDnS5_EEOT_OT0_, symObjAddr: 0x3B80, symBinAddr: 0x100007420, symSize: 0x40 }
  - { offsetInCU: 0x130ED, offset: 0x130ED, size: 0x8, addend: 0x0, symName: __ZNSt3__122__compressed_pair_elemIRNS_9allocatorI6node_tEELi1ELb0EEC2B7v160006IS4_vEEOT_, symObjAddr: 0x3BC0, symBinAddr: 0x100007460, symSize: 0x20 }
  - { offsetInCU: 0x1312C, offset: 0x1312C, size: 0x8, addend: 0x0, symName: __ZNSt3__19allocatorI6node_tE8allocateB7v160006Em, symObjAddr: 0x3BE0, symBinAddr: 0x100007480, symSize: 0x50 }
  - { offsetInCU: 0x1315E, offset: 0x1315E, size: 0x8, addend: 0x0, symName: __ZNSt3__117__compressed_pairIP6node_tRNS_9allocatorIS1_EEE6secondB7v160006Ev, symObjAddr: 0x3C30, symBinAddr: 0x1000074D0, symSize: 0x20 }
  - { offsetInCU: 0x13182, offset: 0x13182, size: 0x8, addend: 0x0, symName: __ZNSt3__122__compressed_pair_elemIRNS_9allocatorI6node_tEELi1ELb0EE5__getB7v160006Ev, symObjAddr: 0x3C50, symBinAddr: 0x1000074F0, symSize: 0x20 }
  - { offsetInCU: 0x131A6, offset: 0x131A6, size: 0x8, addend: 0x0, symName: __ZNSt3__117__compressed_pairIP6node_tRNS_9allocatorIS1_EEE5firstB7v160006Ev, symObjAddr: 0x3C70, symBinAddr: 0x100007510, symSize: 0x20 }
  - { offsetInCU: 0x131CB, offset: 0x131CB, size: 0x8, addend: 0x0, symName: __ZNSt3__116reverse_iteratorIP6node_tEC1B7v160006ES2_, symObjAddr: 0x3E10, symBinAddr: 0x1000076B0, symSize: 0x30 }
  - { offsetInCU: 0x13200, offset: 0x13200, size: 0x8, addend: 0x0, symName: __ZNKSt3__116reverse_iteratorIP6node_tE4baseB7v160006Ev, symObjAddr: 0x3E40, symBinAddr: 0x1000076E0, symSize: 0x20 }
  - { offsetInCU: 0x13224, offset: 0x13224, size: 0x8, addend: 0x0, symName: __ZNKSt3__16vectorI6node_tNS_9allocatorIS1_EEE14__annotate_newB7v160006Em, symObjAddr: 0x3EA0, symBinAddr: 0x100007740, symSize: 0xA0 }
  - { offsetInCU: 0x13258, offset: 0x13258, size: 0x8, addend: 0x0, symName: __ZNSt3__129_AllocatorDestroyRangeReverseINS_9allocatorI6node_tEENS_16reverse_iteratorIPS2_EEEC1B7v160006ERS3_RS6_S9_, symObjAddr: 0x3FB0, symBinAddr: 0x100007850, symSize: 0x40 }
  - { offsetInCU: 0x132B2, offset: 0x132B2, size: 0x8, addend: 0x0, symName: __ZNSt3__116allocator_traitsINS_9allocatorI6node_tEEE9constructB7v160006IS2_JS2_EvEEvRS3_PT_DpOT0_, symObjAddr: 0x4030, symBinAddr: 0x1000078D0, symSize: 0x30 }
  - { offsetInCU: 0x13308, offset: 0x13308, size: 0x8, addend: 0x0, symName: __ZNKSt3__116reverse_iteratorIP6node_tEdeB7v160006Ev, symObjAddr: 0x4080, symBinAddr: 0x100007920, symSize: 0x30 }
  - { offsetInCU: 0x1333A, offset: 0x1333A, size: 0x8, addend: 0x0, symName: __ZNSt3__116reverse_iteratorIP6node_tEppB7v160006Ev, symObjAddr: 0x40B0, symBinAddr: 0x100007950, symSize: 0x20 }
  - { offsetInCU: 0x1335E, offset: 0x1335E, size: 0x8, addend: 0x0, symName: __ZNSt3__128__exception_guard_exceptionsINS_29_AllocatorDestroyRangeReverseINS_9allocatorI6node_tEENS_16reverse_iteratorIPS3_EEEEE10__completeB7v160006Ev, symObjAddr: 0x40D0, symBinAddr: 0x100007970, symSize: 0x20 }
  - { offsetInCU: 0x13383, offset: 0x13383, size: 0x8, addend: 0x0, symName: __ZNSt3__128__exception_guard_exceptionsINS_29_AllocatorDestroyRangeReverseINS_9allocatorI6node_tEENS_16reverse_iteratorIPS3_EEEEED1B7v160006Ev, symObjAddr: 0x40F0, symBinAddr: 0x100007990, symSize: 0x20 }
  - { offsetInCU: 0x133AB, offset: 0x133AB, size: 0x8, addend: 0x0, symName: __ZNSt3__128__exception_guard_exceptionsINS_29_AllocatorDestroyRangeReverseINS_9allocatorI6node_tEENS_16reverse_iteratorIPS3_EEEEEC1B7v160006ES8_, symObjAddr: 0x4110, symBinAddr: 0x1000079B0, symSize: 0x40 }
  - { offsetInCU: 0x133E1, offset: 0x133E1, size: 0x8, addend: 0x0, symName: __ZNSt3__128__exception_guard_exceptionsINS_29_AllocatorDestroyRangeReverseINS_9allocatorI6node_tEENS_16reverse_iteratorIPS3_EEEEEC2B7v160006ES8_, symObjAddr: 0x4150, symBinAddr: 0x1000079F0, symSize: 0x30 }
  - { offsetInCU: 0x13417, offset: 0x13417, size: 0x8, addend: 0x0, symName: __ZNSt3__129_AllocatorDestroyRangeReverseINS_9allocatorI6node_tEENS_16reverse_iteratorIPS2_EEEC2B7v160006ERS3_RS6_S9_, symObjAddr: 0x4180, symBinAddr: 0x100007A20, symSize: 0x40 }
  - { offsetInCU: 0x1346B, offset: 0x1346B, size: 0x8, addend: 0x0, symName: __ZNSt3__19allocatorI6node_tE9constructB7v160006IS1_JS1_EEEvPT_DpOT0_, symObjAddr: 0x41C0, symBinAddr: 0x100007A60, symSize: 0x30 }
  - { offsetInCU: 0x134C0, offset: 0x134C0, size: 0x8, addend: 0x0, symName: __ZN6node_tC1EOS_, symObjAddr: 0x41F0, symBinAddr: 0x100007A90, symSize: 0x30 }
  - { offsetInCU: 0x134F3, offset: 0x134F3, size: 0x8, addend: 0x0, symName: __ZN6node_tC2EOS_, symObjAddr: 0x4220, symBinAddr: 0x100007AC0, symSize: 0x50 }
  - { offsetInCU: 0x13526, offset: 0x13526, size: 0x8, addend: 0x0, symName: __ZNSt3__16vectorIiNS_9allocatorIiEEEC1B7v160006EOS3_, symObjAddr: 0x4270, symBinAddr: 0x100007B10, symSize: 0x30 }
  - { offsetInCU: 0x13560, offset: 0x13560, size: 0x8, addend: 0x0, symName: __ZNSt3__16vectorIiNS_9allocatorIiEEEC2B7v160006EOS3_, symObjAddr: 0x42A0, symBinAddr: 0x100007B40, symSize: 0xE0 }
  - { offsetInCU: 0x1359F, offset: 0x1359F, size: 0x8, addend: 0x0, symName: __ZNSt3__119__to_address_helperINS_16reverse_iteratorIP6node_tEEvE6__callB7v160006ERKS4_, symObjAddr: 0x4390, symBinAddr: 0x100007C30, symSize: 0x40 }
  - { offsetInCU: 0x135C1, offset: 0x135C1, size: 0x8, addend: 0x0, symName: __ZNKSt3__116reverse_iteratorIP6node_tEptB7v160006Ev, symObjAddr: 0x43D0, symBinAddr: 0x100007C70, symSize: 0x20 }
  - { offsetInCU: 0x135E6, offset: 0x135E6, size: 0x8, addend: 0x0, symName: __ZNSt3__128__exception_guard_exceptionsINS_29_AllocatorDestroyRangeReverseINS_9allocatorI6node_tEENS_16reverse_iteratorIPS3_EEEEED2B7v160006Ev, symObjAddr: 0x43F0, symBinAddr: 0x100007C90, symSize: 0x40 }
  - { offsetInCU: 0x1360D, offset: 0x1360D, size: 0x8, addend: 0x0, symName: __ZNKSt3__129_AllocatorDestroyRangeReverseINS_9allocatorI6node_tEENS_16reverse_iteratorIPS2_EEEclB7v160006Ev, symObjAddr: 0x4430, symBinAddr: 0x100007CD0, symSize: 0xF0 }
  - { offsetInCU: 0x13633, offset: 0x13633, size: 0x8, addend: 0x0, symName: __ZNSt3__116reverse_iteratorINS0_IP6node_tEEEC1B7v160006ES3_, symObjAddr: 0x4590, symBinAddr: 0x100007E30, symSize: 0x30 }
  - { offsetInCU: 0x13668, offset: 0x13668, size: 0x8, addend: 0x0, symName: __ZNSt3__116reverse_iteratorINS0_IP6node_tEEEppB7v160006Ev, symObjAddr: 0x4630, symBinAddr: 0x100007ED0, symSize: 0x30 }
  - { offsetInCU: 0x1368C, offset: 0x1368C, size: 0x8, addend: 0x0, symName: __ZNKSt3__116reverse_iteratorINS0_IP6node_tEEE4baseB7v160006Ev, symObjAddr: 0x4660, symBinAddr: 0x100007F00, symSize: 0x20 }
  - { offsetInCU: 0x136B6, offset: 0x136B6, size: 0x8, addend: 0x0, symName: __ZNSt3__119__to_address_helperINS_16reverse_iteratorINS1_IP6node_tEEEEvE6__callB7v160006ERKS5_, symObjAddr: 0x4680, symBinAddr: 0x100007F20, symSize: 0x40 }
  - { offsetInCU: 0x136D8, offset: 0x136D8, size: 0x8, addend: 0x0, symName: __ZNKSt3__116reverse_iteratorINS0_IP6node_tEEEptB7v160006Ev, symObjAddr: 0x46C0, symBinAddr: 0x100007F60, symSize: 0x20 }
  - { offsetInCU: 0x136FC, offset: 0x136FC, size: 0x8, addend: 0x0, symName: __ZNKSt3__116reverse_iteratorINS0_IP6node_tEEEdeB7v160006Ev, symObjAddr: 0x46E0, symBinAddr: 0x100007F80, symSize: 0x40 }
  - { offsetInCU: 0x1372E, offset: 0x1372E, size: 0x8, addend: 0x0, symName: __ZNSt3__116reverse_iteratorIP6node_tEmmB7v160006Ev, symObjAddr: 0x4720, symBinAddr: 0x100007FC0, symSize: 0x20 }
  - { offsetInCU: 0x13753, offset: 0x13753, size: 0x8, addend: 0x0, symName: __ZNSt3__116reverse_iteratorINS0_IP6node_tEEEC2B7v160006ES3_, symObjAddr: 0x4740, symBinAddr: 0x100007FE0, symSize: 0x40 }
  - { offsetInCU: 0x13789, offset: 0x13789, size: 0x8, addend: 0x0, symName: __ZNSt3__116reverse_iteratorIP6node_tEC2B7v160006ES2_, symObjAddr: 0x4780, symBinAddr: 0x100008020, symSize: 0x30 }
  - { offsetInCU: 0x137BF, offset: 0x137BF, size: 0x8, addend: 0x0, symName: __ZNSt3__114__split_bufferI6node_tRNS_9allocatorIS1_EEED2Ev, symObjAddr: 0x47B0, symBinAddr: 0x100008050, symSize: 0x70 }
  - { offsetInCU: 0x137E9, offset: 0x137E9, size: 0x8, addend: 0x0, symName: __ZNSt3__114__split_bufferI6node_tRNS_9allocatorIS1_EEE5clearB7v160006Ev, symObjAddr: 0x4820, symBinAddr: 0x1000080C0, symSize: 0x20 }
  - { offsetInCU: 0x1380D, offset: 0x1380D, size: 0x8, addend: 0x0, symName: __ZNKSt3__114__split_bufferI6node_tRNS_9allocatorIS1_EEE8capacityB7v160006Ev, symObjAddr: 0x4840, symBinAddr: 0x1000080E0, symSize: 0x40 }
  - { offsetInCU: 0x13831, offset: 0x13831, size: 0x8, addend: 0x0, symName: __ZNSt3__114__split_bufferI6node_tRNS_9allocatorIS1_EEE17__destruct_at_endB7v160006EPS1_, symObjAddr: 0x4880, symBinAddr: 0x100008120, symSize: 0x30 }
  - { offsetInCU: 0x13863, offset: 0x13863, size: 0x8, addend: 0x0, symName: __ZNSt3__114__split_bufferI6node_tRNS_9allocatorIS1_EEE17__destruct_at_endB7v160006EPS1_NS_17integral_constantIbLb0EEE, symObjAddr: 0x48B0, symBinAddr: 0x100008150, symSize: 0x80 }
  - { offsetInCU: 0x138A1, offset: 0x138A1, size: 0x8, addend: 0x0, symName: __ZNKSt3__114__split_bufferI6node_tRNS_9allocatorIS1_EEE9__end_capB7v160006Ev, symObjAddr: 0x4930, symBinAddr: 0x1000081D0, symSize: 0x20 }
  - { offsetInCU: 0x138C5, offset: 0x138C5, size: 0x8, addend: 0x0, symName: __ZNKSt3__117__compressed_pairIP6node_tRNS_9allocatorIS1_EEE5firstB7v160006Ev, symObjAddr: 0x4950, symBinAddr: 0x1000081F0, symSize: 0x20 }
  - { offsetInCU: 0x138E9, offset: 0x138E9, size: 0x8, addend: 0x0, symName: __ZNSt3__16vectorIiNS_9allocatorIiEEE22__construct_one_at_endB7v160006IJRKiEEEvDpOT_, symObjAddr: 0x4970, symBinAddr: 0x100008210, symSize: 0x90 }
  - { offsetInCU: 0x13936, offset: 0x13936, size: 0x8, addend: 0x0, symName: __ZNSt3__16vectorIiNS_9allocatorIiEEE21__push_back_slow_pathIRKiEEvOT_, symObjAddr: 0x4A00, symBinAddr: 0x1000082A0, symSize: 0xD0 }
  - { offsetInCU: 0x13993, offset: 0x13993, size: 0x8, addend: 0x0, symName: __ZNSt3__116allocator_traitsINS_9allocatorIiEEE9constructB7v160006IiJRKiEvEEvRS2_PT_DpOT0_, symObjAddr: 0x4AD0, symBinAddr: 0x100008370, symSize: 0x30 }
  - { offsetInCU: 0x139E9, offset: 0x139E9, size: 0x8, addend: 0x0, symName: __ZNSt3__19allocatorIiE9constructB7v160006IiJRKiEEEvPT_DpOT0_, symObjAddr: 0x4B00, symBinAddr: 0x1000083A0, symSize: 0x20 }
  - { offsetInCU: 0x13A3D, offset: 0x13A3D, size: 0x8, addend: 0x0, symName: __ZNKSt3__16vectorIiNS_9allocatorIiEEE11__recommendB7v160006Em, symObjAddr: 0x4B20, symBinAddr: 0x1000083C0, symSize: 0xA0 }
  - { offsetInCU: 0x13A91, offset: 0x13A91, size: 0x8, addend: 0x0, symName: __ZNSt3__114__split_bufferIiRNS_9allocatorIiEEEC1EmmS3_, symObjAddr: 0x4BC0, symBinAddr: 0x100008460, symSize: 0x40 }
  - { offsetInCU: 0x13AE6, offset: 0x13AE6, size: 0x8, addend: 0x0, symName: __ZNSt3__114__split_bufferIiRNS_9allocatorIiEEED1Ev, symObjAddr: 0x4D30, symBinAddr: 0x1000085D0, symSize: 0x20 }
  - { offsetInCU: 0x13B11, offset: 0x13B11, size: 0x8, addend: 0x0, symName: __ZNSt3__114__split_bufferIiRNS_9allocatorIiEEEC2EmmS3_, symObjAddr: 0x4D50, symBinAddr: 0x1000085F0, symSize: 0xD0 }
  - { offsetInCU: 0x13B83, offset: 0x13B83, size: 0x8, addend: 0x0, symName: __ZNSt3__117__compressed_pairIPiRNS_9allocatorIiEEEC1B7v160006IDnS4_EEOT_OT0_, symObjAddr: 0x4E20, symBinAddr: 0x1000086C0, symSize: 0x30 }
  - { offsetInCU: 0x13BD8, offset: 0x13BD8, size: 0x8, addend: 0x0, symName: __ZNSt3__114__split_bufferIiRNS_9allocatorIiEEE7__allocB7v160006Ev, symObjAddr: 0x4E50, symBinAddr: 0x1000086F0, symSize: 0x20 }
  - { offsetInCU: 0x13BFC, offset: 0x13BFC, size: 0x8, addend: 0x0, symName: __ZNSt3__114__split_bufferIiRNS_9allocatorIiEEE9__end_capB7v160006Ev, symObjAddr: 0x4E70, symBinAddr: 0x100008710, symSize: 0x20 }
  - { offsetInCU: 0x13C21, offset: 0x13C21, size: 0x8, addend: 0x0, symName: __ZNSt3__117__compressed_pairIPiRNS_9allocatorIiEEEC2B7v160006IDnS4_EEOT_OT0_, symObjAddr: 0x4E90, symBinAddr: 0x100008730, symSize: 0x40 }
  - { offsetInCU: 0x13C77, offset: 0x13C77, size: 0x8, addend: 0x0, symName: __ZNSt3__122__compressed_pair_elemIRNS_9allocatorIiEELi1ELb0EEC2B7v160006IS3_vEEOT_, symObjAddr: 0x4ED0, symBinAddr: 0x100008770, symSize: 0x20 }
  - { offsetInCU: 0x13CB6, offset: 0x13CB6, size: 0x8, addend: 0x0, symName: __ZNSt3__117__compressed_pairIPiRNS_9allocatorIiEEE6secondB7v160006Ev, symObjAddr: 0x4EF0, symBinAddr: 0x100008790, symSize: 0x20 }
  - { offsetInCU: 0x13CDA, offset: 0x13CDA, size: 0x8, addend: 0x0, symName: __ZNSt3__122__compressed_pair_elemIRNS_9allocatorIiEELi1ELb0EE5__getB7v160006Ev, symObjAddr: 0x4F10, symBinAddr: 0x1000087B0, symSize: 0x20 }
  - { offsetInCU: 0x13CFE, offset: 0x13CFE, size: 0x8, addend: 0x0, symName: __ZNSt3__117__compressed_pairIPiRNS_9allocatorIiEEE5firstB7v160006Ev, symObjAddr: 0x4F30, symBinAddr: 0x1000087D0, symSize: 0x20 }
  - { offsetInCU: 0x13D45, offset: 0x13D45, size: 0x8, addend: 0x0, symName: __ZNKSt3__111__move_loopINS_17_ClassicAlgPolicyEEclB7v160006INS_16reverse_iteratorIPiEES6_S6_EENS_4pairIT_T1_EES8_T0_S9_, symObjAddr: 0x5450, symBinAddr: 0x100008CF0, symSize: 0xA0 }
  - { offsetInCU: 0x13DB4, offset: 0x13DB4, size: 0x8, addend: 0x0, symName: __ZNSt3__18_IterOpsINS_17_ClassicAlgPolicyEE11__iter_moveB7v160006IRNS_16reverse_iteratorIPiEEEENS_9enable_ifIXsr12is_referenceIDTdeclsr3stdE7declvalIRT_EEEEE5valueEDTclsr3stdE4movedeclsr3stdE7declvalISA_EEEEE4typeEOS9_, symObjAddr: 0x5630, symBinAddr: 0x100008ED0, symSize: 0x20 }
  - { offsetInCU: 0x13DE0, offset: 0x13DE0, size: 0x8, addend: 0x0, symName: __ZNSt3__18_IterOpsINS_17_ClassicAlgPolicyEE25__validate_iter_referenceB7v160006IRNS_16reverse_iteratorIPiEEEEvv, symObjAddr: 0x5650, symBinAddr: 0x100008EF0, symSize: 0x10 }
  - { offsetInCU: 0x13DFE, offset: 0x13DFE, size: 0x8, addend: 0x0, symName: __ZNSt3__118__unwrap_iter_implINS_16reverse_iteratorIPiEELb0EE8__unwrapB7v160006ES3_, symObjAddr: 0x5660, symBinAddr: 0x100008F00, symSize: 0x20 }
  - { offsetInCU: 0x13E26, offset: 0x13E26, size: 0x8, addend: 0x0, symName: __ZNSt3__14pairINS_16reverse_iteratorIPiEES3_EC1B7v160006IS3_S3_LPv0EEEOT_OT0_, symObjAddr: 0x5680, symBinAddr: 0x100008F20, symSize: 0x30 }
  - { offsetInCU: 0x13E82, offset: 0x13E82, size: 0x8, addend: 0x0, symName: __ZNSt3__14pairINS_16reverse_iteratorIPiEES3_EC2B7v160006IS3_S3_LPv0EEEOT_OT0_, symObjAddr: 0x56B0, symBinAddr: 0x100008F50, symSize: 0x40 }
  - { offsetInCU: 0x13EDE, offset: 0x13EDE, size: 0x8, addend: 0x0, symName: __ZNSt3__118__unwrap_iter_implINS_16reverse_iteratorIPiEELb0EE8__rewrapB7v160006ES3_S3_, symObjAddr: 0x56F0, symBinAddr: 0x100008F90, symSize: 0x30 }
  - { offsetInCU: 0x13F0B, offset: 0x13F0B, size: 0x8, addend: 0x0, symName: __ZNSt3__114__split_bufferIiRNS_9allocatorIiEEED2Ev, symObjAddr: 0x5720, symBinAddr: 0x100008FC0, symSize: 0x70 }
  - { offsetInCU: 0x13F35, offset: 0x13F35, size: 0x8, addend: 0x0, symName: __ZNSt3__114__split_bufferIiRNS_9allocatorIiEEE5clearB7v160006Ev, symObjAddr: 0x5790, symBinAddr: 0x100009030, symSize: 0x20 }
  - { offsetInCU: 0x13F59, offset: 0x13F59, size: 0x8, addend: 0x0, symName: __ZNKSt3__114__split_bufferIiRNS_9allocatorIiEEE8capacityB7v160006Ev, symObjAddr: 0x57B0, symBinAddr: 0x100009050, symSize: 0x30 }
  - { offsetInCU: 0x13F7D, offset: 0x13F7D, size: 0x8, addend: 0x0, symName: __ZNSt3__114__split_bufferIiRNS_9allocatorIiEEE17__destruct_at_endB7v160006EPi, symObjAddr: 0x57E0, symBinAddr: 0x100009080, symSize: 0x30 }
  - { offsetInCU: 0x13FAF, offset: 0x13FAF, size: 0x8, addend: 0x0, symName: __ZNSt3__114__split_bufferIiRNS_9allocatorIiEEE17__destruct_at_endB7v160006EPiNS_17integral_constantIbLb0EEE, symObjAddr: 0x5810, symBinAddr: 0x1000090B0, symSize: 0x80 }
  - { offsetInCU: 0x13FED, offset: 0x13FED, size: 0x8, addend: 0x0, symName: __ZNKSt3__114__split_bufferIiRNS_9allocatorIiEEE9__end_capB7v160006Ev, symObjAddr: 0x5890, symBinAddr: 0x100009130, symSize: 0x20 }
  - { offsetInCU: 0x14011, offset: 0x14011, size: 0x8, addend: 0x0, symName: __ZNKSt3__117__compressed_pairIPiRNS_9allocatorIiEEE5firstB7v160006Ev, symObjAddr: 0x58B0, symBinAddr: 0x100009150, symSize: 0x20 }
  - { offsetInCU: 0x14036, offset: 0x14036, size: 0x8, addend: 0x0, symName: __ZNSt3__16vectorI11AStarNode_tNS_9allocatorIS1_EEEC2B7v160006Ev, symObjAddr: 0x58D0, symBinAddr: 0x100009170, symSize: 0x60 }
  - { offsetInCU: 0x1405E, offset: 0x1405E, size: 0x8, addend: 0x0, symName: __ZNSt3__117__compressed_pairIP11AStarNode_tNS_9allocatorIS1_EEEC1B7v160006IDnNS_18__default_init_tagEEEOT_OT0_, symObjAddr: 0x5930, symBinAddr: 0x1000091D0, symSize: 0x30 }
  - { offsetInCU: 0x140B4, offset: 0x140B4, size: 0x8, addend: 0x0, symName: __ZNSt3__117__compressed_pairIP11AStarNode_tNS_9allocatorIS1_EEEC2B7v160006IDnNS_18__default_init_tagEEEOT_OT0_, symObjAddr: 0x5970, symBinAddr: 0x100009210, symSize: 0x40 }
  - { offsetInCU: 0x1410A, offset: 0x1410A, size: 0x8, addend: 0x0, symName: __ZNSt3__122__compressed_pair_elemIP11AStarNode_tLi0ELb0EEC2B7v160006IDnvEEOT_, symObjAddr: 0x59B0, symBinAddr: 0x100009250, symSize: 0x20 }
  - { offsetInCU: 0x1414A, offset: 0x1414A, size: 0x8, addend: 0x0, symName: __ZNSt3__122__compressed_pair_elemINS_9allocatorI11AStarNode_tEELi1ELb1EEC2B7v160006ENS_18__default_init_tagE, symObjAddr: 0x59D0, symBinAddr: 0x100009270, symSize: 0x20 }
  - { offsetInCU: 0x1417C, offset: 0x1417C, size: 0x8, addend: 0x0, symName: __ZNSt3__19allocatorI11AStarNode_tEC2B7v160006Ev, symObjAddr: 0x59F0, symBinAddr: 0x100009290, symSize: 0x20 }
  - { offsetInCU: 0x141A4, offset: 0x141A4, size: 0x8, addend: 0x0, symName: __ZNSt3__116__non_trivial_ifILb1ENS_9allocatorI11AStarNode_tEEEC2B7v160006Ev, symObjAddr: 0x5A10, symBinAddr: 0x1000092B0, symSize: 0x10 }
  - { offsetInCU: 0x141CC, offset: 0x141CC, size: 0x8, addend: 0x0, symName: __ZNSt3__16vectorI11AStarNode_tNS_9allocatorIS1_EEED2B7v160006Ev, symObjAddr: 0x5A20, symBinAddr: 0x1000092C0, symSize: 0x40 }
  - { offsetInCU: 0x141F4, offset: 0x141F4, size: 0x8, addend: 0x0, symName: __ZNSt3__16vectorI11AStarNode_tNS_9allocatorIS1_EEE16__destroy_vectorC1ERS4_, symObjAddr: 0x5A60, symBinAddr: 0x100009300, symSize: 0x30 }
  - { offsetInCU: 0x1422A, offset: 0x1422A, size: 0x8, addend: 0x0, symName: __ZNSt3__16vectorI11AStarNode_tNS_9allocatorIS1_EEE16__destroy_vectorclB7v160006Ev, symObjAddr: 0x5A90, symBinAddr: 0x100009330, symSize: 0x90 }
  - { offsetInCU: 0x1424F, offset: 0x1424F, size: 0x8, addend: 0x0, symName: __ZNSt3__16vectorI11AStarNode_tNS_9allocatorIS1_EEE16__destroy_vectorC2ERS4_, symObjAddr: 0x5B20, symBinAddr: 0x1000093C0, symSize: 0x20 }
  - { offsetInCU: 0x14285, offset: 0x14285, size: 0x8, addend: 0x0, symName: __ZNKSt3__16vectorI11AStarNode_tNS_9allocatorIS1_EEE17__annotate_deleteB7v160006Ev, symObjAddr: 0x5B40, symBinAddr: 0x1000093E0, symSize: 0xB0 }
  - { offsetInCU: 0x142A9, offset: 0x142A9, size: 0x8, addend: 0x0, symName: __ZNSt3__16vectorI11AStarNode_tNS_9allocatorIS1_EEE7__clearB7v160006Ev, symObjAddr: 0x5C00, symBinAddr: 0x1000094A0, symSize: 0x20 }
  - { offsetInCU: 0x142CE, offset: 0x142CE, size: 0x8, addend: 0x0, symName: __ZNSt3__116allocator_traitsINS_9allocatorI11AStarNode_tEEE10deallocateB7v160006ERS3_PS2_m, symObjAddr: 0x5C20, symBinAddr: 0x1000094C0, symSize: 0x30 }
  - { offsetInCU: 0x1430F, offset: 0x1430F, size: 0x8, addend: 0x0, symName: __ZNSt3__16vectorI11AStarNode_tNS_9allocatorIS1_EEE7__allocB7v160006Ev, symObjAddr: 0x5C50, symBinAddr: 0x1000094F0, symSize: 0x20 }
  - { offsetInCU: 0x14333, offset: 0x14333, size: 0x8, addend: 0x0, symName: __ZNKSt3__16vectorI11AStarNode_tNS_9allocatorIS1_EEE8capacityB7v160006Ev, symObjAddr: 0x5C70, symBinAddr: 0x100009510, symSize: 0x40 }
  - { offsetInCU: 0x14357, offset: 0x14357, size: 0x8, addend: 0x0, symName: __ZNKSt3__16vectorI11AStarNode_tNS_9allocatorIS1_EEE31__annotate_contiguous_containerB7v160006EPKvS6_S6_S6_, symObjAddr: 0x5CB0, symBinAddr: 0x100009550, symSize: 0x20 }
  - { offsetInCU: 0x143A7, offset: 0x143A7, size: 0x8, addend: 0x0, symName: __ZNKSt3__16vectorI11AStarNode_tNS_9allocatorIS1_EEE4dataB7v160006Ev, symObjAddr: 0x5CD0, symBinAddr: 0x100009570, symSize: 0x20 }
  - { offsetInCU: 0x143CB, offset: 0x143CB, size: 0x8, addend: 0x0, symName: __ZNKSt3__16vectorI11AStarNode_tNS_9allocatorIS1_EEE4sizeB7v160006Ev, symObjAddr: 0x5CF0, symBinAddr: 0x100009590, symSize: 0x30 }
  - { offsetInCU: 0x143EF, offset: 0x143EF, size: 0x8, addend: 0x0, symName: __ZNSt3__16vectorI11AStarNode_tNS_9allocatorIS1_EEE22__base_destruct_at_endB7v160006EPS1_, symObjAddr: 0x5D30, symBinAddr: 0x1000095D0, symSize: 0x80 }
  - { offsetInCU: 0x14432, offset: 0x14432, size: 0x8, addend: 0x0, symName: __ZNSt3__116allocator_traitsINS_9allocatorI11AStarNode_tEEE7destroyB7v160006IS2_vEEvRS3_PT_, symObjAddr: 0x5DB0, symBinAddr: 0x100009650, symSize: 0x30 }
  - { offsetInCU: 0x1446E, offset: 0x1446E, size: 0x8, addend: 0x0, symName: __ZNSt3__19allocatorI11AStarNode_tE7destroyB7v160006EPS1_, symObjAddr: 0x5DE0, symBinAddr: 0x100009680, symSize: 0x20 }
  - { offsetInCU: 0x144A0, offset: 0x144A0, size: 0x8, addend: 0x0, symName: __ZNSt3__19allocatorI11AStarNode_tE10deallocateB7v160006EPS1_m, symObjAddr: 0x5E00, symBinAddr: 0x1000096A0, symSize: 0x40 }
  - { offsetInCU: 0x144E0, offset: 0x144E0, size: 0x8, addend: 0x0, symName: __ZNSt3__117__compressed_pairIP11AStarNode_tNS_9allocatorIS1_EEE6secondB7v160006Ev, symObjAddr: 0x5E40, symBinAddr: 0x1000096E0, symSize: 0x20 }
  - { offsetInCU: 0x14504, offset: 0x14504, size: 0x8, addend: 0x0, symName: __ZNSt3__122__compressed_pair_elemINS_9allocatorI11AStarNode_tEELi1ELb1EE5__getB7v160006Ev, symObjAddr: 0x5E60, symBinAddr: 0x100009700, symSize: 0x10 }
  - { offsetInCU: 0x14528, offset: 0x14528, size: 0x8, addend: 0x0, symName: __ZNKSt3__16vectorI11AStarNode_tNS_9allocatorIS1_EEE9__end_capB7v160006Ev, symObjAddr: 0x5E70, symBinAddr: 0x100009710, symSize: 0x20 }
  - { offsetInCU: 0x1454C, offset: 0x1454C, size: 0x8, addend: 0x0, symName: __ZNKSt3__117__compressed_pairIP11AStarNode_tNS_9allocatorIS1_EEE5firstB7v160006Ev, symObjAddr: 0x5E90, symBinAddr: 0x100009730, symSize: 0x20 }
  - { offsetInCU: 0x14570, offset: 0x14570, size: 0x8, addend: 0x0, symName: __ZNKSt3__122__compressed_pair_elemIP11AStarNode_tLi0ELb0EE5__getB7v160006Ev, symObjAddr: 0x5EB0, symBinAddr: 0x100009750, symSize: 0x10 }
  - { offsetInCU: 0x14594, offset: 0x14594, size: 0x8, addend: 0x0, symName: __ZNSt3__16vectorIdNS_9allocatorIdEEE6assignIPKdLi0EEEvT_S7_, symObjAddr: 0x5EC0, symBinAddr: 0x100009760, symSize: 0x160 }
  - { offsetInCU: 0x14631, offset: 0x14631, size: 0x8, addend: 0x0, symName: __ZNKSt16initializer_listIdE5beginB7v160006Ev, symObjAddr: 0x6020, symBinAddr: 0x1000098C0, symSize: 0x20 }
  - { offsetInCU: 0x14655, offset: 0x14655, size: 0x8, addend: 0x0, symName: __ZNKSt16initializer_listIdE3endB7v160006Ev, symObjAddr: 0x6040, symBinAddr: 0x1000098E0, symSize: 0x20 }
  - { offsetInCU: 0x14679, offset: 0x14679, size: 0x8, addend: 0x0, symName: __ZNSt3__16vectorIdNS_9allocatorIdEEE18__construct_at_endIPKdLi0EEEvT_S7_m, symObjAddr: 0x6120, symBinAddr: 0x1000099C0, symSize: 0x90 }
  - { offsetInCU: 0x146EA, offset: 0x146EA, size: 0x8, addend: 0x0, symName: __ZNSt3__16vectorIdNS_9allocatorIdEEE17__destruct_at_endB7v160006EPd, symObjAddr: 0x61B0, symBinAddr: 0x100009A50, symSize: 0x60 }
  - { offsetInCU: 0x1472C, offset: 0x1472C, size: 0x8, addend: 0x0, symName: __ZNSt3__16vectorIdNS_9allocatorIdEEE13__vdeallocateEv, symObjAddr: 0x6210, symBinAddr: 0x100009AB0, symSize: 0x80 }
  - { offsetInCU: 0x14752, offset: 0x14752, size: 0x8, addend: 0x0, symName: __ZNSt3__16vectorIdNS_9allocatorIdEEE11__vallocateB7v160006Em, symObjAddr: 0x6290, symBinAddr: 0x100009B30, symSize: 0xA0 }
  - { offsetInCU: 0x14794, offset: 0x14794, size: 0x8, addend: 0x0, symName: __ZNKSt3__16vectorIdNS_9allocatorIdEEE11__recommendB7v160006Em, symObjAddr: 0x6330, symBinAddr: 0x100009BD0, symSize: 0xA0 }
  - { offsetInCU: 0x1480A, offset: 0x1480A, size: 0x8, addend: 0x0, symName: __ZNKSt3__114__copy_trivialclB7v160006IKddLi0EEENS_4pairIPT_PT0_EES5_S5_S7_, symObjAddr: 0x65B0, symBinAddr: 0x100009E50, symSize: 0x40 }
  - { offsetInCU: 0x1488F, offset: 0x1488F, size: 0x8, addend: 0x0, symName: __ZNSt3__14pairIPKdS2_EC1B7v160006IS2_S2_LPv0EEEOT_OT0_, symObjAddr: 0x6700, symBinAddr: 0x100009FA0, symSize: 0x30 }
  - { offsetInCU: 0x148EB, offset: 0x148EB, size: 0x8, addend: 0x0, symName: __ZNSt3__14pairIPKdS2_EC2B7v160006IS2_S2_LPv0EEEOT_OT0_, symObjAddr: 0x6730, symBinAddr: 0x100009FD0, symSize: 0x30 }
  - { offsetInCU: 0x14947, offset: 0x14947, size: 0x8, addend: 0x0, symName: __ZNSt3__118__unwrap_iter_implIPKdLb1EE8__unwrapB7v160006ES2_, symObjAddr: 0x6760, symBinAddr: 0x10000A000, symSize: 0x20 }
  - { offsetInCU: 0x14974, offset: 0x14974, size: 0x8, addend: 0x0, symName: __ZNSt3__14pairIPKdPdEC1B7v160006IRS2_S3_LPv0EEEOT_OT0_, symObjAddr: 0x6830, symBinAddr: 0x10000A0D0, symSize: 0x30 }
  - { offsetInCU: 0x149D0, offset: 0x149D0, size: 0x8, addend: 0x0, symName: __ZNSt3__14pairIPKdPdEC2B7v160006IRS2_S3_LPv0EEEOT_OT0_, symObjAddr: 0x6860, symBinAddr: 0x10000A100, symSize: 0x30 }
  - { offsetInCU: 0x14A2C, offset: 0x14A2C, size: 0x8, addend: 0x0, symName: __ZNSt3__118__unwrap_iter_implIPdLb1EE8__unwrapB7v160006ES1_, symObjAddr: 0x6890, symBinAddr: 0x10000A130, symSize: 0x20 }
  - { offsetInCU: 0x14A4F, offset: 0x14A4F, size: 0x8, addend: 0x0, symName: __ZNSt3__14pairIPKdPdEC1B7v160006IS2_S3_LPv0EEEOT_OT0_, symObjAddr: 0x68B0, symBinAddr: 0x10000A150, symSize: 0x30 }
  - { offsetInCU: 0x14AAB, offset: 0x14AAB, size: 0x8, addend: 0x0, symName: __ZNSt3__14pairIPKdPdEC2B7v160006IS2_S3_LPv0EEEOT_OT0_, symObjAddr: 0x68E0, symBinAddr: 0x10000A180, symSize: 0x30 }
  - { offsetInCU: 0x14B07, offset: 0x14B07, size: 0x8, addend: 0x0, symName: __ZNSt3__118__unwrap_iter_implIPKdLb1EE8__rewrapB7v160006ES2_S2_, symObjAddr: 0x6950, symBinAddr: 0x10000A1F0, symSize: 0x50 }
  - { offsetInCU: 0x14B38, offset: 0x14B38, size: 0x8, addend: 0x0, symName: __ZNSt3__118__unwrap_iter_implIPdLb1EE8__rewrapB7v160006ES1_S1_, symObjAddr: 0x69A0, symBinAddr: 0x10000A240, symSize: 0x50 }
  - { offsetInCU: 0x14B82, offset: 0x14B82, size: 0x8, addend: 0x0, symName: __ZNSt3__16vectorIdNS_9allocatorIdEEE21_ConstructTransactionC1B7v160006ERS3_m, symObjAddr: 0x69F0, symBinAddr: 0x10000A290, symSize: 0x30 }
  - { offsetInCU: 0x14BC8, offset: 0x14BC8, size: 0x8, addend: 0x0, symName: __ZNSt3__16vectorIdNS_9allocatorIdEEE21_ConstructTransactionD1B7v160006Ev, symObjAddr: 0x6A50, symBinAddr: 0x10000A2F0, symSize: 0x20 }
  - { offsetInCU: 0x14BF0, offset: 0x14BF0, size: 0x8, addend: 0x0, symName: __ZNSt3__16vectorIdNS_9allocatorIdEEE21_ConstructTransactionC2B7v160006ERS3_m, symObjAddr: 0x6A70, symBinAddr: 0x10000A310, symSize: 0x40 }
  - { offsetInCU: 0x14C36, offset: 0x14C36, size: 0x8, addend: 0x0, symName: __ZNSt3__16vectorIdNS_9allocatorIdEEE21_ConstructTransactionD2B7v160006Ev, symObjAddr: 0x6AB0, symBinAddr: 0x10000A350, symSize: 0x20 }
  - { offsetInCU: 0x14C5D, offset: 0x14C5D, size: 0x8, addend: 0x0, symName: __ZNSt3__16vectorIdNS_9allocatorIdEEE27__invalidate_iterators_pastB7v160006EPd, symObjAddr: 0x6AD0, symBinAddr: 0x10000A370, symSize: 0x10 }
  - { offsetInCU: 0x14C92, offset: 0x14C92, size: 0x8, addend: 0x0, symName: __ZNKSt3__16vectorIdNS_9allocatorIdEEE17__annotate_shrinkB7v160006Em, symObjAddr: 0x6AE0, symBinAddr: 0x10000A380, symSize: 0xA0 }
  - { offsetInCU: 0x14CC5, offset: 0x14CC5, size: 0x8, addend: 0x0, symName: __ZNSt3__16vectorIdNS_9allocatorIdEEE5clearB7v160006Ev, symObjAddr: 0x6B80, symBinAddr: 0x10000A420, symSize: 0x50 }
  - { offsetInCU: 0x14CF8, offset: 0x14CF8, size: 0x8, addend: 0x0, symName: __ZNSt3__16vectorIdNS_9allocatorIdEEE9__end_capB7v160006Ev, symObjAddr: 0x6BD0, symBinAddr: 0x10000A470, symSize: 0x20 }
  - { offsetInCU: 0x14D1C, offset: 0x14D1C, size: 0x8, addend: 0x0, symName: __ZNSt3__117__compressed_pairIPdNS_9allocatorIdEEE5firstB7v160006Ev, symObjAddr: 0x6BF0, symBinAddr: 0x10000A490, symSize: 0x20 }
  - { offsetInCU: 0x14D40, offset: 0x14D40, size: 0x8, addend: 0x0, symName: __ZNSt3__122__compressed_pair_elemIPdLi0ELb0EE5__getB7v160006Ev, symObjAddr: 0x6C10, symBinAddr: 0x10000A4B0, symSize: 0x10 }
  - { offsetInCU: 0x14D64, offset: 0x14D64, size: 0x8, addend: 0x0, symName: __ZNKSt3__16vectorIdNS_9allocatorIdEEE8max_sizeEv, symObjAddr: 0x6C20, symBinAddr: 0x10000A4C0, symSize: 0x60 }
  - { offsetInCU: 0x14D8A, offset: 0x14D8A, size: 0x8, addend: 0x0, symName: __ZNKSt3__16vectorIdNS_9allocatorIdEEE20__throw_length_errorB7v160006Ev, symObjAddr: 0x6C80, symBinAddr: 0x10000A520, symSize: 0x20 }
  - { offsetInCU: 0x14DAE, offset: 0x14DAE, size: 0x8, addend: 0x0, symName: __ZNKSt3__16vectorIdNS_9allocatorIdEEE14__annotate_newB7v160006Em, symObjAddr: 0x6CE0, symBinAddr: 0x10000A580, symSize: 0xB0 }
  - { offsetInCU: 0x14DEC, offset: 0x14DEC, size: 0x8, addend: 0x0, symName: __ZNSt3__116allocator_traitsINS_9allocatorIdEEE8max_sizeB7v160006IS2_vEEmRKS2_, symObjAddr: 0x6D90, symBinAddr: 0x10000A630, symSize: 0x20 }
  - { offsetInCU: 0x14E19, offset: 0x14E19, size: 0x8, addend: 0x0, symName: __ZNKSt3__16vectorIdNS_9allocatorIdEEE7__allocB7v160006Ev, symObjAddr: 0x6DB0, symBinAddr: 0x10000A650, symSize: 0x20 }
  - { offsetInCU: 0x14E3D, offset: 0x14E3D, size: 0x8, addend: 0x0, symName: __ZNKSt3__19allocatorIdE8max_sizeB7v160006Ev, symObjAddr: 0x6DD0, symBinAddr: 0x10000A670, symSize: 0x20 }
  - { offsetInCU: 0x14E61, offset: 0x14E61, size: 0x8, addend: 0x0, symName: __ZNKSt3__117__compressed_pairIPdNS_9allocatorIdEEE6secondB7v160006Ev, symObjAddr: 0x6DF0, symBinAddr: 0x10000A690, symSize: 0x20 }
  - { offsetInCU: 0x14E85, offset: 0x14E85, size: 0x8, addend: 0x0, symName: __ZNKSt3__122__compressed_pair_elemINS_9allocatorIdEELi1ELb1EE5__getB7v160006Ev, symObjAddr: 0x6E10, symBinAddr: 0x10000A6B0, symSize: 0x10 }
  - { offsetInCU: 0x14EA9, offset: 0x14EA9, size: 0x8, addend: 0x0, symName: __ZNSt3__19allocatorIdE8allocateB7v160006Em, symObjAddr: 0x6E20, symBinAddr: 0x10000A6C0, symSize: 0x50 }
  - { offsetInCU: 0x14EDB, offset: 0x14EDB, size: 0x8, addend: 0x0, symName: __ZNSt3__16vectorIdNS_9allocatorIdEEE22__construct_one_at_endB7v160006IJRKdEEEvDpOT_, symObjAddr: 0x6E70, symBinAddr: 0x10000A710, symSize: 0x90 }
  - { offsetInCU: 0x14F28, offset: 0x14F28, size: 0x8, addend: 0x0, symName: __ZNSt3__16vectorIdNS_9allocatorIdEEE21__push_back_slow_pathIRKdEEvOT_, symObjAddr: 0x6F00, symBinAddr: 0x10000A7A0, symSize: 0xD0 }
  - { offsetInCU: 0x14F85, offset: 0x14F85, size: 0x8, addend: 0x0, symName: __ZNSt3__116allocator_traitsINS_9allocatorIdEEE9constructB7v160006IdJRKdEvEEvRS2_PT_DpOT0_, symObjAddr: 0x6FD0, symBinAddr: 0x10000A870, symSize: 0x30 }
  - { offsetInCU: 0x14FDB, offset: 0x14FDB, size: 0x8, addend: 0x0, symName: __ZNSt3__19allocatorIdE9constructB7v160006IdJRKdEEEvPT_DpOT0_, symObjAddr: 0x7000, symBinAddr: 0x10000A8A0, symSize: 0x30 }
  - { offsetInCU: 0x15030, offset: 0x15030, size: 0x8, addend: 0x0, symName: __ZNSt3__114__split_bufferIdRNS_9allocatorIdEEEC1EmmS3_, symObjAddr: 0x7030, symBinAddr: 0x10000A8D0, symSize: 0x40 }
  - { offsetInCU: 0x15085, offset: 0x15085, size: 0x8, addend: 0x0, symName: __ZNSt3__114__split_bufferIdRNS_9allocatorIdEEED1Ev, symObjAddr: 0x71A0, symBinAddr: 0x10000AA40, symSize: 0x20 }
  - { offsetInCU: 0x150B0, offset: 0x150B0, size: 0x8, addend: 0x0, symName: __ZNSt3__114__split_bufferIdRNS_9allocatorIdEEEC2EmmS3_, symObjAddr: 0x71C0, symBinAddr: 0x10000AA60, symSize: 0xD0 }
  - { offsetInCU: 0x15122, offset: 0x15122, size: 0x8, addend: 0x0, symName: __ZNSt3__117__compressed_pairIPdRNS_9allocatorIdEEEC1B7v160006IDnS4_EEOT_OT0_, symObjAddr: 0x7290, symBinAddr: 0x10000AB30, symSize: 0x30 }
  - { offsetInCU: 0x15177, offset: 0x15177, size: 0x8, addend: 0x0, symName: __ZNSt3__114__split_bufferIdRNS_9allocatorIdEEE7__allocB7v160006Ev, symObjAddr: 0x72C0, symBinAddr: 0x10000AB60, symSize: 0x20 }
  - { offsetInCU: 0x1519B, offset: 0x1519B, size: 0x8, addend: 0x0, symName: __ZNSt3__114__split_bufferIdRNS_9allocatorIdEEE9__end_capB7v160006Ev, symObjAddr: 0x72E0, symBinAddr: 0x10000AB80, symSize: 0x20 }
  - { offsetInCU: 0x151C0, offset: 0x151C0, size: 0x8, addend: 0x0, symName: __ZNSt3__117__compressed_pairIPdRNS_9allocatorIdEEEC2B7v160006IDnS4_EEOT_OT0_, symObjAddr: 0x7300, symBinAddr: 0x10000ABA0, symSize: 0x40 }
  - { offsetInCU: 0x15216, offset: 0x15216, size: 0x8, addend: 0x0, symName: __ZNSt3__122__compressed_pair_elemIRNS_9allocatorIdEELi1ELb0EEC2B7v160006IS3_vEEOT_, symObjAddr: 0x7340, symBinAddr: 0x10000ABE0, symSize: 0x20 }
  - { offsetInCU: 0x15255, offset: 0x15255, size: 0x8, addend: 0x0, symName: __ZNSt3__117__compressed_pairIPdRNS_9allocatorIdEEE6secondB7v160006Ev, symObjAddr: 0x7360, symBinAddr: 0x10000AC00, symSize: 0x20 }
  - { offsetInCU: 0x15279, offset: 0x15279, size: 0x8, addend: 0x0, symName: __ZNSt3__122__compressed_pair_elemIRNS_9allocatorIdEELi1ELb0EE5__getB7v160006Ev, symObjAddr: 0x7380, symBinAddr: 0x10000AC20, symSize: 0x20 }
  - { offsetInCU: 0x1529D, offset: 0x1529D, size: 0x8, addend: 0x0, symName: __ZNSt3__117__compressed_pairIPdRNS_9allocatorIdEEE5firstB7v160006Ev, symObjAddr: 0x73A0, symBinAddr: 0x10000AC40, symSize: 0x20 }
  - { offsetInCU: 0x152C2, offset: 0x152C2, size: 0x8, addend: 0x0, symName: __ZNSt3__116reverse_iteratorIPdEC1B7v160006ES1_, symObjAddr: 0x7430, symBinAddr: 0x10000ACD0, symSize: 0x30 }
  - { offsetInCU: 0x152F7, offset: 0x152F7, size: 0x8, addend: 0x0, symName: __ZNKSt3__116reverse_iteratorIPdE4baseB7v160006Ev, symObjAddr: 0x7460, symBinAddr: 0x10000AD00, symSize: 0x20 }
  - { offsetInCU: 0x15334, offset: 0x15334, size: 0x8, addend: 0x0, symName: __ZNKSt3__111__move_loopINS_17_ClassicAlgPolicyEEclB7v160006INS_16reverse_iteratorIPdEES6_S6_EENS_4pairIT_T1_EES8_T0_S9_, symObjAddr: 0x7900, symBinAddr: 0x10000B1A0, symSize: 0xA0 }
  - { offsetInCU: 0x153A3, offset: 0x153A3, size: 0x8, addend: 0x0, symName: __ZNSt3__18_IterOpsINS_17_ClassicAlgPolicyEE11__iter_moveB7v160006IRNS_16reverse_iteratorIPdEEEENS_9enable_ifIXsr12is_referenceIDTdeclsr3stdE7declvalIRT_EEEEE5valueEDTclsr3stdE4movedeclsr3stdE7declvalISA_EEEEE4typeEOS9_, symObjAddr: 0x7B20, symBinAddr: 0x10000B3C0, symSize: 0x20 }
  - { offsetInCU: 0x153CE, offset: 0x153CE, size: 0x8, addend: 0x0, symName: __ZNKSt3__116reverse_iteratorIPdEdeB7v160006Ev, symObjAddr: 0x7B40, symBinAddr: 0x10000B3E0, symSize: 0x30 }
  - { offsetInCU: 0x15400, offset: 0x15400, size: 0x8, addend: 0x0, symName: __ZNSt3__116reverse_iteratorIPdEppB7v160006Ev, symObjAddr: 0x7B70, symBinAddr: 0x10000B410, symSize: 0x20 }
  - { offsetInCU: 0x15425, offset: 0x15425, size: 0x8, addend: 0x0, symName: __ZNSt3__18_IterOpsINS_17_ClassicAlgPolicyEE25__validate_iter_referenceB7v160006IRNS_16reverse_iteratorIPdEEEEvv, symObjAddr: 0x7B90, symBinAddr: 0x10000B430, symSize: 0x10 }
  - { offsetInCU: 0x15443, offset: 0x15443, size: 0x8, addend: 0x0, symName: __ZNSt3__118__unwrap_iter_implINS_16reverse_iteratorIPdEELb0EE8__unwrapB7v160006ES3_, symObjAddr: 0x7BA0, symBinAddr: 0x10000B440, symSize: 0x20 }
  - { offsetInCU: 0x1546B, offset: 0x1546B, size: 0x8, addend: 0x0, symName: __ZNSt3__14pairINS_16reverse_iteratorIPdEES3_EC1B7v160006IS3_S3_LPv0EEEOT_OT0_, symObjAddr: 0x7BC0, symBinAddr: 0x10000B460, symSize: 0x30 }
  - { offsetInCU: 0x154C7, offset: 0x154C7, size: 0x8, addend: 0x0, symName: __ZNSt3__14pairINS_16reverse_iteratorIPdEES3_EC2B7v160006IS3_S3_LPv0EEEOT_OT0_, symObjAddr: 0x7BF0, symBinAddr: 0x10000B490, symSize: 0x40 }
  - { offsetInCU: 0x15523, offset: 0x15523, size: 0x8, addend: 0x0, symName: __ZNSt3__118__unwrap_iter_implINS_16reverse_iteratorIPdEELb0EE8__rewrapB7v160006ES3_S3_, symObjAddr: 0x7C30, symBinAddr: 0x10000B4D0, symSize: 0x30 }
  - { offsetInCU: 0x15550, offset: 0x15550, size: 0x8, addend: 0x0, symName: __ZNSt3__116reverse_iteratorIPdEC2B7v160006ES1_, symObjAddr: 0x7C60, symBinAddr: 0x10000B500, symSize: 0x30 }
  - { offsetInCU: 0x15586, offset: 0x15586, size: 0x8, addend: 0x0, symName: __ZNSt3__114__split_bufferIdRNS_9allocatorIdEEED2Ev, symObjAddr: 0x7C90, symBinAddr: 0x10000B530, symSize: 0x70 }
  - { offsetInCU: 0x155B0, offset: 0x155B0, size: 0x8, addend: 0x0, symName: __ZNSt3__114__split_bufferIdRNS_9allocatorIdEEE5clearB7v160006Ev, symObjAddr: 0x7D00, symBinAddr: 0x10000B5A0, symSize: 0x20 }
  - { offsetInCU: 0x155D4, offset: 0x155D4, size: 0x8, addend: 0x0, symName: __ZNKSt3__114__split_bufferIdRNS_9allocatorIdEEE8capacityB7v160006Ev, symObjAddr: 0x7D20, symBinAddr: 0x10000B5C0, symSize: 0x30 }
  - { offsetInCU: 0x155F8, offset: 0x155F8, size: 0x8, addend: 0x0, symName: __ZNSt3__114__split_bufferIdRNS_9allocatorIdEEE17__destruct_at_endB7v160006EPd, symObjAddr: 0x7D50, symBinAddr: 0x10000B5F0, symSize: 0x30 }
  - { offsetInCU: 0x1562A, offset: 0x1562A, size: 0x8, addend: 0x0, symName: __ZNSt3__114__split_bufferIdRNS_9allocatorIdEEE17__destruct_at_endB7v160006EPdNS_17integral_constantIbLb0EEE, symObjAddr: 0x7D80, symBinAddr: 0x10000B620, symSize: 0x80 }
  - { offsetInCU: 0x15668, offset: 0x15668, size: 0x8, addend: 0x0, symName: __ZNKSt3__114__split_bufferIdRNS_9allocatorIdEEE9__end_capB7v160006Ev, symObjAddr: 0x7E00, symBinAddr: 0x10000B6A0, symSize: 0x20 }
  - { offsetInCU: 0x1568C, offset: 0x1568C, size: 0x8, addend: 0x0, symName: __ZNKSt3__117__compressed_pairIPdRNS_9allocatorIdEEE5firstB7v160006Ev, symObjAddr: 0x7E20, symBinAddr: 0x10000B6C0, symSize: 0x20 }
  - { offsetInCU: 0x156B0, offset: 0x156B0, size: 0x8, addend: 0x0, symName: __ZNSt3__16vectorIiNS_9allocatorIiEEE19__copy_assign_allocB7v160006ERKS3_, symObjAddr: 0x7E40, symBinAddr: 0x10000B6E0, symSize: 0x30 }
  - { offsetInCU: 0x156E3, offset: 0x156E3, size: 0x8, addend: 0x0, symName: __ZNSt3__16vectorIiNS_9allocatorIiEEE6assignIPiLi0EEEvT_S6_, symObjAddr: 0x7E70, symBinAddr: 0x10000B710, symSize: 0x160 }
  - { offsetInCU: 0x15780, offset: 0x15780, size: 0x8, addend: 0x0, symName: __ZNSt3__16vectorIiNS_9allocatorIiEEE19__copy_assign_allocB7v160006ERKS3_NS_17integral_constantIbLb0EEE, symObjAddr: 0x7FD0, symBinAddr: 0x10000B870, symSize: 0x10 }
  - { offsetInCU: 0x157BA, offset: 0x157BA, size: 0x8, addend: 0x0, symName: __ZNSt3__16vectorIiNS_9allocatorIiEEE17__destruct_at_endB7v160006EPi, symObjAddr: 0x80A0, symBinAddr: 0x10000B940, symSize: 0x60 }
  - { offsetInCU: 0x157FC, offset: 0x157FC, size: 0x8, addend: 0x0, symName: __ZNSt3__16vectorIiNS_9allocatorIiEEE13__vdeallocateEv, symObjAddr: 0x8100, symBinAddr: 0x10000B9A0, symSize: 0x80 }
  - { offsetInCU: 0x1583B, offset: 0x1583B, size: 0x8, addend: 0x0, symName: __ZNKSt3__114__copy_trivialclB7v160006IiiLi0EEENS_4pairIPT_PT0_EES4_S4_S6_, symObjAddr: 0x8340, symBinAddr: 0x10000BBE0, symSize: 0x40 }
  - { offsetInCU: 0x158A7, offset: 0x158A7, size: 0x8, addend: 0x0, symName: __ZNSt3__14pairIPiS1_EC1B7v160006IRS1_S1_LPv0EEEOT_OT0_, symObjAddr: 0x84E0, symBinAddr: 0x10000BD80, symSize: 0x30 }
  - { offsetInCU: 0x15903, offset: 0x15903, size: 0x8, addend: 0x0, symName: __ZNSt3__14pairIPiS1_EC2B7v160006IRS1_S1_LPv0EEEOT_OT0_, symObjAddr: 0x8510, symBinAddr: 0x10000BDB0, symSize: 0x30 }
  - { offsetInCU: 0x1595F, offset: 0x1595F, size: 0x8, addend: 0x0, symName: __ZNSt3__118__unwrap_iter_implIPiLb1EE8__unwrapB7v160006ES1_, symObjAddr: 0x8540, symBinAddr: 0x10000BDE0, symSize: 0x20 }
  - { offsetInCU: 0x15982, offset: 0x15982, size: 0x8, addend: 0x0, symName: __ZNSt3__14pairIPiS1_EC1B7v160006IS1_S1_LPv0EEEOT_OT0_, symObjAddr: 0x8560, symBinAddr: 0x10000BE00, symSize: 0x30 }
  - { offsetInCU: 0x159DE, offset: 0x159DE, size: 0x8, addend: 0x0, symName: __ZNSt3__14pairIPiS1_EC2B7v160006IS1_S1_LPv0EEEOT_OT0_, symObjAddr: 0x8590, symBinAddr: 0x10000BE30, symSize: 0x30 }
  - { offsetInCU: 0x15A3A, offset: 0x15A3A, size: 0x8, addend: 0x0, symName: __ZNSt3__118__unwrap_iter_implIPiLb1EE8__rewrapB7v160006ES1_S1_, symObjAddr: 0x85C0, symBinAddr: 0x10000BE60, symSize: 0x50 }
  - { offsetInCU: 0x15A6A, offset: 0x15A6A, size: 0x8, addend: 0x0, symName: __ZNSt3__16vectorIiNS_9allocatorIiEEE27__invalidate_iterators_pastB7v160006EPi, symObjAddr: 0x8610, symBinAddr: 0x10000BEB0, symSize: 0x10 }
  - { offsetInCU: 0x15A9F, offset: 0x15A9F, size: 0x8, addend: 0x0, symName: __ZNKSt3__16vectorIiNS_9allocatorIiEEE17__annotate_shrinkB7v160006Em, symObjAddr: 0x8620, symBinAddr: 0x10000BEC0, symSize: 0xA0 }
  - { offsetInCU: 0x15AD2, offset: 0x15AD2, size: 0x8, addend: 0x0, symName: __ZNSt3__16vectorIiNS_9allocatorIiEEE5clearB7v160006Ev, symObjAddr: 0x86C0, symBinAddr: 0x10000BF60, symSize: 0x50 }
  - { offsetInCU: 0x15B05, offset: 0x15B05, size: 0x8, addend: 0x0, symName: __ZNSt3__16vectorI11AStarNode_tNS_9allocatorIS1_EEE9__end_capB7v160006Ev, symObjAddr: 0x8710, symBinAddr: 0x10000BFB0, symSize: 0x20 }
  - { offsetInCU: 0x15B29, offset: 0x15B29, size: 0x8, addend: 0x0, symName: __ZNSt3__16vectorI11AStarNode_tNS_9allocatorIS1_EEE22__construct_one_at_endB7v160006IJRKS1_EEEvDpOT_, symObjAddr: 0x8730, symBinAddr: 0x10000BFD0, symSize: 0x90 }
  - { offsetInCU: 0x15B76, offset: 0x15B76, size: 0x8, addend: 0x0, symName: __ZNSt3__16vectorI11AStarNode_tNS_9allocatorIS1_EEE21__push_back_slow_pathIRKS1_EEvOT_, symObjAddr: 0x87C0, symBinAddr: 0x10000C060, symSize: 0xD0 }
  - { offsetInCU: 0x15BD2, offset: 0x15BD2, size: 0x8, addend: 0x0, symName: __ZNSt3__117__compressed_pairIP11AStarNode_tNS_9allocatorIS1_EEE5firstB7v160006Ev, symObjAddr: 0x8890, symBinAddr: 0x10000C130, symSize: 0x20 }
  - { offsetInCU: 0x15BF6, offset: 0x15BF6, size: 0x8, addend: 0x0, symName: __ZNSt3__122__compressed_pair_elemIP11AStarNode_tLi0ELb0EE5__getB7v160006Ev, symObjAddr: 0x88B0, symBinAddr: 0x10000C150, symSize: 0x10 }
  - { offsetInCU: 0x15C34, offset: 0x15C34, size: 0x8, addend: 0x0, symName: __ZNSt3__16vectorI11AStarNode_tNS_9allocatorIS1_EEE21_ConstructTransactionC1B7v160006ERS4_m, symObjAddr: 0x88C0, symBinAddr: 0x10000C160, symSize: 0x30 }
  - { offsetInCU: 0x15C7A, offset: 0x15C7A, size: 0x8, addend: 0x0, symName: __ZNSt3__116allocator_traitsINS_9allocatorI11AStarNode_tEEE9constructB7v160006IS2_JRKS2_EvEEvRS3_PT_DpOT0_, symObjAddr: 0x88F0, symBinAddr: 0x10000C190, symSize: 0x30 }
  - { offsetInCU: 0x15CD1, offset: 0x15CD1, size: 0x8, addend: 0x0, symName: __ZNSt3__16vectorI11AStarNode_tNS_9allocatorIS1_EEE21_ConstructTransactionD1B7v160006Ev, symObjAddr: 0x8920, symBinAddr: 0x10000C1C0, symSize: 0x20 }
  - { offsetInCU: 0x15CF9, offset: 0x15CF9, size: 0x8, addend: 0x0, symName: __ZNSt3__16vectorI11AStarNode_tNS_9allocatorIS1_EEE21_ConstructTransactionC2B7v160006ERS4_m, symObjAddr: 0x8940, symBinAddr: 0x10000C1E0, symSize: 0x40 }
  - { offsetInCU: 0x15D3E, offset: 0x15D3E, size: 0x8, addend: 0x0, symName: __ZNSt3__19allocatorI11AStarNode_tE9constructB7v160006IS1_JRKS1_EEEvPT_DpOT0_, symObjAddr: 0x8980, symBinAddr: 0x10000C220, symSize: 0x30 }
  - { offsetInCU: 0x15D93, offset: 0x15D93, size: 0x8, addend: 0x0, symName: __ZN11AStarNode_tC1ERKS_, symObjAddr: 0x89B0, symBinAddr: 0x10000C250, symSize: 0x30 }
  - { offsetInCU: 0x15DC6, offset: 0x15DC6, size: 0x8, addend: 0x0, symName: __ZN11AStarNode_tC2ERKS_, symObjAddr: 0x89E0, symBinAddr: 0x10000C280, symSize: 0x80 }
  - { offsetInCU: 0x15DF9, offset: 0x15DF9, size: 0x8, addend: 0x0, symName: __ZNSt3__16vectorIdNS_9allocatorIdEEEC1ERKS3_, symObjAddr: 0x8A60, symBinAddr: 0x10000C300, symSize: 0x30 }
  - { offsetInCU: 0x15E33, offset: 0x15E33, size: 0x8, addend: 0x0, symName: __ZNSt3__16vectorIdNS_9allocatorIdEEEC2ERKS3_, symObjAddr: 0x8A90, symBinAddr: 0x10000C330, symSize: 0x110 }
  - { offsetInCU: 0x15E92, offset: 0x15E92, size: 0x8, addend: 0x0, symName: __ZNSt3__116allocator_traitsINS_9allocatorIdEEE37select_on_container_copy_constructionB7v160006IS2_vvEES2_RKS2_, symObjAddr: 0x8BA0, symBinAddr: 0x10000C440, symSize: 0x10 }
  - { offsetInCU: 0x15EC6, offset: 0x15EC6, size: 0x8, addend: 0x0, symName: __ZNSt3__117__compressed_pairIPdNS_9allocatorIdEEEC1B7v160006IDnS3_EEOT_OT0_, symObjAddr: 0x8BB0, symBinAddr: 0x10000C450, symSize: 0x30 }
  - { offsetInCU: 0x15F1B, offset: 0x15F1B, size: 0x8, addend: 0x0, symName: __ZNSt3__16vectorIdNS_9allocatorIdEEE18__construct_at_endIPdLi0EEEvT_S6_m, symObjAddr: 0x8C20, symBinAddr: 0x10000C4C0, symSize: 0x90 }
  - { offsetInCU: 0x15F8C, offset: 0x15F8C, size: 0x8, addend: 0x0, symName: __ZNSt3__128__exception_guard_exceptionsINS_6vectorIdNS_9allocatorIdEEE16__destroy_vectorEE10__completeB7v160006Ev, symObjAddr: 0x8CB0, symBinAddr: 0x10000C550, symSize: 0x20 }
  - { offsetInCU: 0x15FB1, offset: 0x15FB1, size: 0x8, addend: 0x0, symName: __ZNSt3__128__exception_guard_exceptionsINS_6vectorIdNS_9allocatorIdEEE16__destroy_vectorEED1B7v160006Ev, symObjAddr: 0x8CD0, symBinAddr: 0x10000C570, symSize: 0x20 }
  - { offsetInCU: 0x15FD9, offset: 0x15FD9, size: 0x8, addend: 0x0, symName: __ZNSt3__117__compressed_pairIPdNS_9allocatorIdEEEC2B7v160006IDnS3_EEOT_OT0_, symObjAddr: 0x8CF0, symBinAddr: 0x10000C590, symSize: 0x40 }
  - { offsetInCU: 0x1602F, offset: 0x1602F, size: 0x8, addend: 0x0, symName: __ZNSt3__122__compressed_pair_elemINS_9allocatorIdEELi1ELb1EEC2B7v160006IS2_vEEOT_, symObjAddr: 0x8D30, symBinAddr: 0x10000C5D0, symSize: 0x10 }
  - { offsetInCU: 0x1606F, offset: 0x1606F, size: 0x8, addend: 0x0, symName: __ZNSt3__128__exception_guard_exceptionsINS_6vectorIdNS_9allocatorIdEEE16__destroy_vectorEEC1B7v160006ES5_, symObjAddr: 0x8D40, symBinAddr: 0x10000C5E0, symSize: 0x30 }
  - { offsetInCU: 0x160A5, offset: 0x160A5, size: 0x8, addend: 0x0, symName: __ZNSt3__128__exception_guard_exceptionsINS_6vectorIdNS_9allocatorIdEEE16__destroy_vectorEEC2B7v160006ES5_, symObjAddr: 0x8D70, symBinAddr: 0x10000C610, symSize: 0x20 }
  - { offsetInCU: 0x160DB, offset: 0x160DB, size: 0x8, addend: 0x0, symName: __ZNSt3__129_AllocatorDestroyRangeReverseINS_9allocatorIdEEPdEC1B7v160006ERS2_RS3_S6_, symObjAddr: 0x8EF0, symBinAddr: 0x10000C790, symSize: 0x40 }
  - { offsetInCU: 0x16130, offset: 0x16130, size: 0x8, addend: 0x0, symName: __ZNSt3__116allocator_traitsINS_9allocatorIdEEE9constructB7v160006IdJRdEvEEvRS2_PT_DpOT0_, symObjAddr: 0x8F30, symBinAddr: 0x10000C7D0, symSize: 0x30 }
  - { offsetInCU: 0x16186, offset: 0x16186, size: 0x8, addend: 0x0, symName: __ZNSt3__128__exception_guard_exceptionsINS_29_AllocatorDestroyRangeReverseINS_9allocatorIdEEPdEEE10__completeB7v160006Ev, symObjAddr: 0x8F60, symBinAddr: 0x10000C800, symSize: 0x20 }
  - { offsetInCU: 0x161AB, offset: 0x161AB, size: 0x8, addend: 0x0, symName: __ZNSt3__128__exception_guard_exceptionsINS_29_AllocatorDestroyRangeReverseINS_9allocatorIdEEPdEEED1B7v160006Ev, symObjAddr: 0x8F80, symBinAddr: 0x10000C820, symSize: 0x20 }
  - { offsetInCU: 0x161D3, offset: 0x161D3, size: 0x8, addend: 0x0, symName: __ZNSt3__128__exception_guard_exceptionsINS_29_AllocatorDestroyRangeReverseINS_9allocatorIdEEPdEEEC1B7v160006ES5_, symObjAddr: 0x8FA0, symBinAddr: 0x10000C840, symSize: 0x40 }
  - { offsetInCU: 0x16209, offset: 0x16209, size: 0x8, addend: 0x0, symName: __ZNSt3__128__exception_guard_exceptionsINS_29_AllocatorDestroyRangeReverseINS_9allocatorIdEEPdEEEC2B7v160006ES5_, symObjAddr: 0x8FE0, symBinAddr: 0x10000C880, symSize: 0x30 }
  - { offsetInCU: 0x1623F, offset: 0x1623F, size: 0x8, addend: 0x0, symName: __ZNSt3__129_AllocatorDestroyRangeReverseINS_9allocatorIdEEPdEC2B7v160006ERS2_RS3_S6_, symObjAddr: 0x9010, symBinAddr: 0x10000C8B0, symSize: 0x40 }
  - { offsetInCU: 0x16293, offset: 0x16293, size: 0x8, addend: 0x0, symName: __ZNSt3__19allocatorIdE9constructB7v160006IdJRdEEEvPT_DpOT0_, symObjAddr: 0x9050, symBinAddr: 0x10000C8F0, symSize: 0x30 }
  - { offsetInCU: 0x162E8, offset: 0x162E8, size: 0x8, addend: 0x0, symName: __ZNSt3__128__exception_guard_exceptionsINS_29_AllocatorDestroyRangeReverseINS_9allocatorIdEEPdEEED2B7v160006Ev, symObjAddr: 0x9080, symBinAddr: 0x10000C920, symSize: 0x40 }
  - { offsetInCU: 0x1630F, offset: 0x1630F, size: 0x8, addend: 0x0, symName: __ZNKSt3__129_AllocatorDestroyRangeReverseINS_9allocatorIdEEPdEclB7v160006Ev, symObjAddr: 0x90C0, symBinAddr: 0x10000C960, symSize: 0x60 }
  - { offsetInCU: 0x16339, offset: 0x16339, size: 0x8, addend: 0x0, symName: __ZNSt3__119__to_address_helperINS_16reverse_iteratorIPdEEvE6__callB7v160006ERKS3_, symObjAddr: 0x91B0, symBinAddr: 0x10000CA50, symSize: 0x40 }
  - { offsetInCU: 0x1635B, offset: 0x1635B, size: 0x8, addend: 0x0, symName: __ZNKSt3__116reverse_iteratorIPdEptB7v160006Ev, symObjAddr: 0x91F0, symBinAddr: 0x10000CA90, symSize: 0x20 }
  - { offsetInCU: 0x16380, offset: 0x16380, size: 0x8, addend: 0x0, symName: __ZNSt3__128__exception_guard_exceptionsINS_6vectorIdNS_9allocatorIdEEE16__destroy_vectorEED2B7v160006Ev, symObjAddr: 0x9210, symBinAddr: 0x10000CAB0, symSize: 0x40 }
  - { offsetInCU: 0x163A8, offset: 0x163A8, size: 0x8, addend: 0x0, symName: __ZNSt3__16vectorI11AStarNode_tNS_9allocatorIS1_EEE21_ConstructTransactionD2B7v160006Ev, symObjAddr: 0x9250, symBinAddr: 0x10000CAF0, symSize: 0x20 }
  - { offsetInCU: 0x163CF, offset: 0x163CF, size: 0x8, addend: 0x0, symName: __ZNKSt3__16vectorI11AStarNode_tNS_9allocatorIS1_EEE11__recommendB7v160006Em, symObjAddr: 0x9270, symBinAddr: 0x10000CB10, symSize: 0xA0 }
  - { offsetInCU: 0x16423, offset: 0x16423, size: 0x8, addend: 0x0, symName: __ZNSt3__114__split_bufferI11AStarNode_tRNS_9allocatorIS1_EEEC1EmmS4_, symObjAddr: 0x9310, symBinAddr: 0x10000CBB0, symSize: 0x40 }
  - { offsetInCU: 0x16478, offset: 0x16478, size: 0x8, addend: 0x0, symName: __ZNSt3__114__split_bufferI11AStarNode_tRNS_9allocatorIS1_EEED1Ev, symObjAddr: 0x9480, symBinAddr: 0x10000CD20, symSize: 0x20 }
  - { offsetInCU: 0x164A2, offset: 0x164A2, size: 0x8, addend: 0x0, symName: __ZNKSt3__16vectorI11AStarNode_tNS_9allocatorIS1_EEE8max_sizeEv, symObjAddr: 0x94A0, symBinAddr: 0x10000CD40, symSize: 0x60 }
  - { offsetInCU: 0x164C8, offset: 0x164C8, size: 0x8, addend: 0x0, symName: __ZNKSt3__16vectorI11AStarNode_tNS_9allocatorIS1_EEE20__throw_length_errorB7v160006Ev, symObjAddr: 0x9500, symBinAddr: 0x10000CDA0, symSize: 0x20 }
  - { offsetInCU: 0x164F7, offset: 0x164F7, size: 0x8, addend: 0x0, symName: __ZNSt3__116allocator_traitsINS_9allocatorI11AStarNode_tEEE8max_sizeB7v160006IS3_vEEmRKS3_, symObjAddr: 0x9520, symBinAddr: 0x10000CDC0, symSize: 0x20 }
  - { offsetInCU: 0x16524, offset: 0x16524, size: 0x8, addend: 0x0, symName: __ZNKSt3__16vectorI11AStarNode_tNS_9allocatorIS1_EEE7__allocB7v160006Ev, symObjAddr: 0x9540, symBinAddr: 0x10000CDE0, symSize: 0x20 }
  - { offsetInCU: 0x16548, offset: 0x16548, size: 0x8, addend: 0x0, symName: __ZNKSt3__19allocatorI11AStarNode_tE8max_sizeB7v160006Ev, symObjAddr: 0x9560, symBinAddr: 0x10000CE00, symSize: 0x20 }
  - { offsetInCU: 0x1656C, offset: 0x1656C, size: 0x8, addend: 0x0, symName: __ZNKSt3__117__compressed_pairIP11AStarNode_tNS_9allocatorIS1_EEE6secondB7v160006Ev, symObjAddr: 0x9580, symBinAddr: 0x10000CE20, symSize: 0x20 }
  - { offsetInCU: 0x16590, offset: 0x16590, size: 0x8, addend: 0x0, symName: __ZNKSt3__122__compressed_pair_elemINS_9allocatorI11AStarNode_tEELi1ELb1EE5__getB7v160006Ev, symObjAddr: 0x95A0, symBinAddr: 0x10000CE40, symSize: 0x10 }
  - { offsetInCU: 0x165B5, offset: 0x165B5, size: 0x8, addend: 0x0, symName: __ZNSt3__114__split_bufferI11AStarNode_tRNS_9allocatorIS1_EEEC2EmmS4_, symObjAddr: 0x95B0, symBinAddr: 0x10000CE50, symSize: 0xC0 }
  - { offsetInCU: 0x16627, offset: 0x16627, size: 0x8, addend: 0x0, symName: __ZNSt3__117__compressed_pairIP11AStarNode_tRNS_9allocatorIS1_EEEC1B7v160006IDnS5_EEOT_OT0_, symObjAddr: 0x9670, symBinAddr: 0x10000CF10, symSize: 0x30 }
  - { offsetInCU: 0x1667C, offset: 0x1667C, size: 0x8, addend: 0x0, symName: __ZNSt3__114__split_bufferI11AStarNode_tRNS_9allocatorIS1_EEE7__allocB7v160006Ev, symObjAddr: 0x96E0, symBinAddr: 0x10000CF80, symSize: 0x20 }
  - { offsetInCU: 0x166A0, offset: 0x166A0, size: 0x8, addend: 0x0, symName: __ZNSt3__114__split_bufferI11AStarNode_tRNS_9allocatorIS1_EEE9__end_capB7v160006Ev, symObjAddr: 0x9700, symBinAddr: 0x10000CFA0, symSize: 0x20 }
  - { offsetInCU: 0x166C5, offset: 0x166C5, size: 0x8, addend: 0x0, symName: __ZNSt3__117__compressed_pairIP11AStarNode_tRNS_9allocatorIS1_EEEC2B7v160006IDnS5_EEOT_OT0_, symObjAddr: 0x9720, symBinAddr: 0x10000CFC0, symSize: 0x40 }
  - { offsetInCU: 0x1671B, offset: 0x1671B, size: 0x8, addend: 0x0, symName: __ZNSt3__122__compressed_pair_elemIRNS_9allocatorI11AStarNode_tEELi1ELb0EEC2B7v160006IS4_vEEOT_, symObjAddr: 0x9760, symBinAddr: 0x10000D000, symSize: 0x20 }
  - { offsetInCU: 0x1675A, offset: 0x1675A, size: 0x8, addend: 0x0, symName: __ZNSt3__19allocatorI11AStarNode_tE8allocateB7v160006Em, symObjAddr: 0x9780, symBinAddr: 0x10000D020, symSize: 0x50 }
  - { offsetInCU: 0x1678C, offset: 0x1678C, size: 0x8, addend: 0x0, symName: __ZNSt3__117__compressed_pairIP11AStarNode_tRNS_9allocatorIS1_EEE6secondB7v160006Ev, symObjAddr: 0x97D0, symBinAddr: 0x10000D070, symSize: 0x20 }
  - { offsetInCU: 0x167B0, offset: 0x167B0, size: 0x8, addend: 0x0, symName: __ZNSt3__122__compressed_pair_elemIRNS_9allocatorI11AStarNode_tEELi1ELb0EE5__getB7v160006Ev, symObjAddr: 0x97F0, symBinAddr: 0x10000D090, symSize: 0x20 }
  - { offsetInCU: 0x167D4, offset: 0x167D4, size: 0x8, addend: 0x0, symName: __ZNSt3__117__compressed_pairIP11AStarNode_tRNS_9allocatorIS1_EEE5firstB7v160006Ev, symObjAddr: 0x9810, symBinAddr: 0x10000D0B0, symSize: 0x20 }
  - { offsetInCU: 0x167F9, offset: 0x167F9, size: 0x8, addend: 0x0, symName: __ZNSt3__116reverse_iteratorIP11AStarNode_tEC1B7v160006ES2_, symObjAddr: 0x99B0, symBinAddr: 0x10000D250, symSize: 0x30 }
  - { offsetInCU: 0x1682E, offset: 0x1682E, size: 0x8, addend: 0x0, symName: __ZNKSt3__116reverse_iteratorIP11AStarNode_tE4baseB7v160006Ev, symObjAddr: 0x99E0, symBinAddr: 0x10000D280, symSize: 0x20 }
  - { offsetInCU: 0x16852, offset: 0x16852, size: 0x8, addend: 0x0, symName: __ZNKSt3__16vectorI11AStarNode_tNS_9allocatorIS1_EEE14__annotate_newB7v160006Em, symObjAddr: 0x9A40, symBinAddr: 0x10000D2E0, symSize: 0xA0 }
  - { offsetInCU: 0x16886, offset: 0x16886, size: 0x8, addend: 0x0, symName: __ZNSt3__129_AllocatorDestroyRangeReverseINS_9allocatorI11AStarNode_tEENS_16reverse_iteratorIPS2_EEEC1B7v160006ERS3_RS6_S9_, symObjAddr: 0x9B50, symBinAddr: 0x10000D3F0, symSize: 0x40 }
  - { offsetInCU: 0x168E0, offset: 0x168E0, size: 0x8, addend: 0x0, symName: __ZNSt3__116allocator_traitsINS_9allocatorI11AStarNode_tEEE9constructB7v160006IS2_JS2_EvEEvRS3_PT_DpOT0_, symObjAddr: 0x9BD0, symBinAddr: 0x10000D470, symSize: 0x30 }
  - { offsetInCU: 0x16936, offset: 0x16936, size: 0x8, addend: 0x0, symName: __ZNKSt3__116reverse_iteratorIP11AStarNode_tEdeB7v160006Ev, symObjAddr: 0x9C20, symBinAddr: 0x10000D4C0, symSize: 0x30 }
  - { offsetInCU: 0x16968, offset: 0x16968, size: 0x8, addend: 0x0, symName: __ZNSt3__116reverse_iteratorIP11AStarNode_tEppB7v160006Ev, symObjAddr: 0x9C50, symBinAddr: 0x10000D4F0, symSize: 0x20 }
  - { offsetInCU: 0x1698C, offset: 0x1698C, size: 0x8, addend: 0x0, symName: __ZNSt3__128__exception_guard_exceptionsINS_29_AllocatorDestroyRangeReverseINS_9allocatorI11AStarNode_tEENS_16reverse_iteratorIPS3_EEEEE10__completeB7v160006Ev, symObjAddr: 0x9C70, symBinAddr: 0x10000D510, symSize: 0x20 }
  - { offsetInCU: 0x169B1, offset: 0x169B1, size: 0x8, addend: 0x0, symName: __ZNSt3__128__exception_guard_exceptionsINS_29_AllocatorDestroyRangeReverseINS_9allocatorI11AStarNode_tEENS_16reverse_iteratorIPS3_EEEEED1B7v160006Ev, symObjAddr: 0x9C90, symBinAddr: 0x10000D530, symSize: 0x20 }
  - { offsetInCU: 0x169D9, offset: 0x169D9, size: 0x8, addend: 0x0, symName: __ZNSt3__128__exception_guard_exceptionsINS_29_AllocatorDestroyRangeReverseINS_9allocatorI11AStarNode_tEENS_16reverse_iteratorIPS3_EEEEEC1B7v160006ES8_, symObjAddr: 0x9CB0, symBinAddr: 0x10000D550, symSize: 0x40 }
  - { offsetInCU: 0x16A0F, offset: 0x16A0F, size: 0x8, addend: 0x0, symName: __ZNSt3__128__exception_guard_exceptionsINS_29_AllocatorDestroyRangeReverseINS_9allocatorI11AStarNode_tEENS_16reverse_iteratorIPS3_EEEEEC2B7v160006ES8_, symObjAddr: 0x9CF0, symBinAddr: 0x10000D590, symSize: 0x30 }
  - { offsetInCU: 0x16A45, offset: 0x16A45, size: 0x8, addend: 0x0, symName: __ZNSt3__129_AllocatorDestroyRangeReverseINS_9allocatorI11AStarNode_tEENS_16reverse_iteratorIPS2_EEEC2B7v160006ERS3_RS6_S9_, symObjAddr: 0x9D20, symBinAddr: 0x10000D5C0, symSize: 0x40 }
  - { offsetInCU: 0x16A99, offset: 0x16A99, size: 0x8, addend: 0x0, symName: __ZNSt3__19allocatorI11AStarNode_tE9constructB7v160006IS1_JS1_EEEvPT_DpOT0_, symObjAddr: 0x9D60, symBinAddr: 0x10000D600, symSize: 0x30 }
  - { offsetInCU: 0x16AEE, offset: 0x16AEE, size: 0x8, addend: 0x0, symName: __ZN11AStarNode_tC1EOS_, symObjAddr: 0x9D90, symBinAddr: 0x10000D630, symSize: 0x30 }
  - { offsetInCU: 0x16B21, offset: 0x16B21, size: 0x8, addend: 0x0, symName: __ZN11AStarNode_tC2EOS_, symObjAddr: 0x9DC0, symBinAddr: 0x10000D660, symSize: 0x50 }
  - { offsetInCU: 0x16B54, offset: 0x16B54, size: 0x8, addend: 0x0, symName: __ZNSt3__16vectorIdNS_9allocatorIdEEEC1B7v160006EOS3_, symObjAddr: 0x9E10, symBinAddr: 0x10000D6B0, symSize: 0x30 }
  - { offsetInCU: 0x16B8E, offset: 0x16B8E, size: 0x8, addend: 0x0, symName: __ZNSt3__16vectorIdNS_9allocatorIdEEEC2B7v160006EOS3_, symObjAddr: 0x9E40, symBinAddr: 0x10000D6E0, symSize: 0xE0 }
  - { offsetInCU: 0x16BCD, offset: 0x16BCD, size: 0x8, addend: 0x0, symName: __ZNSt3__119__to_address_helperINS_16reverse_iteratorIP11AStarNode_tEEvE6__callB7v160006ERKS4_, symObjAddr: 0x9F30, symBinAddr: 0x10000D7D0, symSize: 0x40 }
  - { offsetInCU: 0x16BEF, offset: 0x16BEF, size: 0x8, addend: 0x0, symName: __ZNKSt3__116reverse_iteratorIP11AStarNode_tEptB7v160006Ev, symObjAddr: 0x9F70, symBinAddr: 0x10000D810, symSize: 0x20 }
  - { offsetInCU: 0x16C14, offset: 0x16C14, size: 0x8, addend: 0x0, symName: __ZNSt3__128__exception_guard_exceptionsINS_29_AllocatorDestroyRangeReverseINS_9allocatorI11AStarNode_tEENS_16reverse_iteratorIPS3_EEEEED2B7v160006Ev, symObjAddr: 0x9F90, symBinAddr: 0x10000D830, symSize: 0x40 }
  - { offsetInCU: 0x16C3B, offset: 0x16C3B, size: 0x8, addend: 0x0, symName: __ZNKSt3__129_AllocatorDestroyRangeReverseINS_9allocatorI11AStarNode_tEENS_16reverse_iteratorIPS2_EEEclB7v160006Ev, symObjAddr: 0x9FD0, symBinAddr: 0x10000D870, symSize: 0xF0 }
  - { offsetInCU: 0x16C61, offset: 0x16C61, size: 0x8, addend: 0x0, symName: __ZNSt3__116reverse_iteratorINS0_IP11AStarNode_tEEEC1B7v160006ES3_, symObjAddr: 0xA130, symBinAddr: 0x10000D9D0, symSize: 0x30 }
  - { offsetInCU: 0x16C96, offset: 0x16C96, size: 0x8, addend: 0x0, symName: __ZNSt3__116reverse_iteratorINS0_IP11AStarNode_tEEEppB7v160006Ev, symObjAddr: 0xA1D0, symBinAddr: 0x10000DA70, symSize: 0x30 }
  - { offsetInCU: 0x16CBA, offset: 0x16CBA, size: 0x8, addend: 0x0, symName: __ZNKSt3__116reverse_iteratorINS0_IP11AStarNode_tEEE4baseB7v160006Ev, symObjAddr: 0xA200, symBinAddr: 0x10000DAA0, symSize: 0x20 }
  - { offsetInCU: 0x16CE4, offset: 0x16CE4, size: 0x8, addend: 0x0, symName: __ZNSt3__119__to_address_helperINS_16reverse_iteratorINS1_IP11AStarNode_tEEEEvE6__callB7v160006ERKS5_, symObjAddr: 0xA220, symBinAddr: 0x10000DAC0, symSize: 0x40 }
  - { offsetInCU: 0x16D06, offset: 0x16D06, size: 0x8, addend: 0x0, symName: __ZNKSt3__116reverse_iteratorINS0_IP11AStarNode_tEEEptB7v160006Ev, symObjAddr: 0xA260, symBinAddr: 0x10000DB00, symSize: 0x20 }
  - { offsetInCU: 0x16D2A, offset: 0x16D2A, size: 0x8, addend: 0x0, symName: __ZNKSt3__116reverse_iteratorINS0_IP11AStarNode_tEEEdeB7v160006Ev, symObjAddr: 0xA280, symBinAddr: 0x10000DB20, symSize: 0x40 }
  - { offsetInCU: 0x16D5C, offset: 0x16D5C, size: 0x8, addend: 0x0, symName: __ZNSt3__116reverse_iteratorIP11AStarNode_tEmmB7v160006Ev, symObjAddr: 0xA2C0, symBinAddr: 0x10000DB60, symSize: 0x20 }
  - { offsetInCU: 0x16D81, offset: 0x16D81, size: 0x8, addend: 0x0, symName: __ZNSt3__116reverse_iteratorINS0_IP11AStarNode_tEEEC2B7v160006ES3_, symObjAddr: 0xA2E0, symBinAddr: 0x10000DB80, symSize: 0x40 }
  - { offsetInCU: 0x16DB7, offset: 0x16DB7, size: 0x8, addend: 0x0, symName: __ZNSt3__116reverse_iteratorIP11AStarNode_tEC2B7v160006ES2_, symObjAddr: 0xA320, symBinAddr: 0x10000DBC0, symSize: 0x30 }
  - { offsetInCU: 0x16DED, offset: 0x16DED, size: 0x8, addend: 0x0, symName: __ZNSt3__114__split_bufferI11AStarNode_tRNS_9allocatorIS1_EEED2Ev, symObjAddr: 0xA350, symBinAddr: 0x10000DBF0, symSize: 0x70 }
  - { offsetInCU: 0x16E17, offset: 0x16E17, size: 0x8, addend: 0x0, symName: __ZNSt3__114__split_bufferI11AStarNode_tRNS_9allocatorIS1_EEE5clearB7v160006Ev, symObjAddr: 0xA3C0, symBinAddr: 0x10000DC60, symSize: 0x20 }
  - { offsetInCU: 0x16E3B, offset: 0x16E3B, size: 0x8, addend: 0x0, symName: __ZNKSt3__114__split_bufferI11AStarNode_tRNS_9allocatorIS1_EEE8capacityB7v160006Ev, symObjAddr: 0xA3E0, symBinAddr: 0x10000DC80, symSize: 0x40 }
  - { offsetInCU: 0x16E5F, offset: 0x16E5F, size: 0x8, addend: 0x0, symName: __ZNSt3__114__split_bufferI11AStarNode_tRNS_9allocatorIS1_EEE17__destruct_at_endB7v160006EPS1_, symObjAddr: 0xA420, symBinAddr: 0x10000DCC0, symSize: 0x30 }
  - { offsetInCU: 0x16E91, offset: 0x16E91, size: 0x8, addend: 0x0, symName: __ZNSt3__114__split_bufferI11AStarNode_tRNS_9allocatorIS1_EEE17__destruct_at_endB7v160006EPS1_NS_17integral_constantIbLb0EEE, symObjAddr: 0xA450, symBinAddr: 0x10000DCF0, symSize: 0x80 }
  - { offsetInCU: 0x16ECF, offset: 0x16ECF, size: 0x8, addend: 0x0, symName: __ZNKSt3__114__split_bufferI11AStarNode_tRNS_9allocatorIS1_EEE9__end_capB7v160006Ev, symObjAddr: 0xA4D0, symBinAddr: 0x10000DD70, symSize: 0x20 }
  - { offsetInCU: 0x16EF3, offset: 0x16EF3, size: 0x8, addend: 0x0, symName: __ZNKSt3__117__compressed_pairIP11AStarNode_tRNS_9allocatorIS1_EEE5firstB7v160006Ev, symObjAddr: 0xA4F0, symBinAddr: 0x10000DD90, symSize: 0x20 }
  - { offsetInCU: 0x16F18, offset: 0x16F18, size: 0x8, addend: 0x0, symName: __ZNSt3__16vectorI11AStarNode_tNS_9allocatorIS1_EEEC2ERKS4_, symObjAddr: 0xA510, symBinAddr: 0x10000DDB0, symSize: 0x110 }
  - { offsetInCU: 0x16F77, offset: 0x16F77, size: 0x8, addend: 0x0, symName: __ZNSt3__116allocator_traitsINS_9allocatorI11AStarNode_tEEE37select_on_container_copy_constructionB7v160006IS3_vvEES3_RKS3_, symObjAddr: 0xA620, symBinAddr: 0x10000DEC0, symSize: 0x10 }
  - { offsetInCU: 0x16FAB, offset: 0x16FAB, size: 0x8, addend: 0x0, symName: __ZNSt3__117__compressed_pairIP11AStarNode_tNS_9allocatorIS1_EEEC1B7v160006IDnS4_EEOT_OT0_, symObjAddr: 0xA630, symBinAddr: 0x10000DED0, symSize: 0x30 }
  - { offsetInCU: 0x17000, offset: 0x17000, size: 0x8, addend: 0x0, symName: __ZNSt3__16vectorI11AStarNode_tNS_9allocatorIS1_EEE11__vallocateB7v160006Em, symObjAddr: 0xA6A0, symBinAddr: 0x10000DF40, symSize: 0xA0 }
  - { offsetInCU: 0x17042, offset: 0x17042, size: 0x8, addend: 0x0, symName: __ZNSt3__16vectorI11AStarNode_tNS_9allocatorIS1_EEE18__construct_at_endIPS1_Li0EEEvT_S7_m, symObjAddr: 0xA740, symBinAddr: 0x10000DFE0, symSize: 0x90 }
  - { offsetInCU: 0x170B3, offset: 0x170B3, size: 0x8, addend: 0x0, symName: __ZNSt3__128__exception_guard_exceptionsINS_6vectorI11AStarNode_tNS_9allocatorIS2_EEE16__destroy_vectorEE10__completeB7v160006Ev, symObjAddr: 0xA7D0, symBinAddr: 0x10000E070, symSize: 0x20 }
  - { offsetInCU: 0x170D8, offset: 0x170D8, size: 0x8, addend: 0x0, symName: __ZNSt3__128__exception_guard_exceptionsINS_6vectorI11AStarNode_tNS_9allocatorIS2_EEE16__destroy_vectorEED1B7v160006Ev, symObjAddr: 0xA7F0, symBinAddr: 0x10000E090, symSize: 0x20 }
  - { offsetInCU: 0x17100, offset: 0x17100, size: 0x8, addend: 0x0, symName: __ZNSt3__117__compressed_pairIP11AStarNode_tNS_9allocatorIS1_EEEC2B7v160006IDnS4_EEOT_OT0_, symObjAddr: 0xA810, symBinAddr: 0x10000E0B0, symSize: 0x40 }
  - { offsetInCU: 0x17156, offset: 0x17156, size: 0x8, addend: 0x0, symName: __ZNSt3__122__compressed_pair_elemINS_9allocatorI11AStarNode_tEELi1ELb1EEC2B7v160006IS3_vEEOT_, symObjAddr: 0xA850, symBinAddr: 0x10000E0F0, symSize: 0x10 }
  - { offsetInCU: 0x17196, offset: 0x17196, size: 0x8, addend: 0x0, symName: __ZNSt3__128__exception_guard_exceptionsINS_6vectorI11AStarNode_tNS_9allocatorIS2_EEE16__destroy_vectorEEC1B7v160006ES6_, symObjAddr: 0xA860, symBinAddr: 0x10000E100, symSize: 0x30 }
  - { offsetInCU: 0x171CC, offset: 0x171CC, size: 0x8, addend: 0x0, symName: __ZNSt3__128__exception_guard_exceptionsINS_6vectorI11AStarNode_tNS_9allocatorIS2_EEE16__destroy_vectorEEC2B7v160006ES6_, symObjAddr: 0xA890, symBinAddr: 0x10000E130, symSize: 0x20 }
  - { offsetInCU: 0x17202, offset: 0x17202, size: 0x8, addend: 0x0, symName: __ZNSt3__129_AllocatorDestroyRangeReverseINS_9allocatorI11AStarNode_tEEPS2_EC1B7v160006ERS3_RS4_S7_, symObjAddr: 0xAA10, symBinAddr: 0x10000E2B0, symSize: 0x40 }
  - { offsetInCU: 0x17257, offset: 0x17257, size: 0x8, addend: 0x0, symName: __ZNSt3__116allocator_traitsINS_9allocatorI11AStarNode_tEEE9constructB7v160006IS2_JRS2_EvEEvRS3_PT_DpOT0_, symObjAddr: 0xAA50, symBinAddr: 0x10000E2F0, symSize: 0x30 }
  - { offsetInCU: 0x172AD, offset: 0x172AD, size: 0x8, addend: 0x0, symName: __ZNSt3__128__exception_guard_exceptionsINS_29_AllocatorDestroyRangeReverseINS_9allocatorI11AStarNode_tEEPS3_EEE10__completeB7v160006Ev, symObjAddr: 0xAA80, symBinAddr: 0x10000E320, symSize: 0x20 }
  - { offsetInCU: 0x172D2, offset: 0x172D2, size: 0x8, addend: 0x0, symName: __ZNSt3__128__exception_guard_exceptionsINS_29_AllocatorDestroyRangeReverseINS_9allocatorI11AStarNode_tEEPS3_EEED1B7v160006Ev, symObjAddr: 0xAAA0, symBinAddr: 0x10000E340, symSize: 0x20 }
  - { offsetInCU: 0x172FA, offset: 0x172FA, size: 0x8, addend: 0x0, symName: __ZNSt3__128__exception_guard_exceptionsINS_29_AllocatorDestroyRangeReverseINS_9allocatorI11AStarNode_tEEPS3_EEEC1B7v160006ES6_, symObjAddr: 0xAAC0, symBinAddr: 0x10000E360, symSize: 0x40 }
  - { offsetInCU: 0x17330, offset: 0x17330, size: 0x8, addend: 0x0, symName: __ZNSt3__128__exception_guard_exceptionsINS_29_AllocatorDestroyRangeReverseINS_9allocatorI11AStarNode_tEEPS3_EEEC2B7v160006ES6_, symObjAddr: 0xAB00, symBinAddr: 0x10000E3A0, symSize: 0x30 }
  - { offsetInCU: 0x17366, offset: 0x17366, size: 0x8, addend: 0x0, symName: __ZNSt3__129_AllocatorDestroyRangeReverseINS_9allocatorI11AStarNode_tEEPS2_EC2B7v160006ERS3_RS4_S7_, symObjAddr: 0xAB30, symBinAddr: 0x10000E3D0, symSize: 0x40 }
  - { offsetInCU: 0x173BA, offset: 0x173BA, size: 0x8, addend: 0x0, symName: __ZNSt3__19allocatorI11AStarNode_tE9constructB7v160006IS1_JRS1_EEEvPT_DpOT0_, symObjAddr: 0xAB70, symBinAddr: 0x10000E410, symSize: 0x30 }
  - { offsetInCU: 0x1740F, offset: 0x1740F, size: 0x8, addend: 0x0, symName: __ZNSt3__128__exception_guard_exceptionsINS_29_AllocatorDestroyRangeReverseINS_9allocatorI11AStarNode_tEEPS3_EEED2B7v160006Ev, symObjAddr: 0xABA0, symBinAddr: 0x10000E440, symSize: 0x40 }
  - { offsetInCU: 0x17436, offset: 0x17436, size: 0x8, addend: 0x0, symName: __ZNKSt3__129_AllocatorDestroyRangeReverseINS_9allocatorI11AStarNode_tEEPS2_EclB7v160006Ev, symObjAddr: 0xABE0, symBinAddr: 0x10000E480, symSize: 0x60 }
  - { offsetInCU: 0x1745B, offset: 0x1745B, size: 0x8, addend: 0x0, symName: __ZNSt3__128__exception_guard_exceptionsINS_6vectorI11AStarNode_tNS_9allocatorIS2_EEE16__destroy_vectorEED2B7v160006Ev, symObjAddr: 0xACB0, symBinAddr: 0x10000E550, symSize: 0x3F }
  - { offsetInCU: 0x4177, offset: 0x1B7E8, size: 0x8, addend: 0x0, symName: __ZNSt3__17advanceB7v160006IPdmmvEEvRT_T0_, symObjAddr: 0x5030, symBinAddr: 0x100010190, symSize: 0x50 }
  - { offsetInCU: 0x5423, offset: 0x1CA94, size: 0x8, addend: 0x0, symName: __ZNSt3__1miB7v160006IPKiS2_EEDTmicldtfp_4baseEcldtfp0_4baseEERKNS_11__wrap_iterIT_EERKNS4_IT0_EE, symObjAddr: 0x3160, symBinAddr: 0x10000F700, symSize: 0x40 }
  - { offsetInCU: 0x546F, offset: 0x1CAE0, size: 0x8, addend: 0x0, symName: __ZNSt3__14moveB7v160006IPiS1_EET0_T_S3_S2_, symObjAddr: 0x3230, symBinAddr: 0x10000F770, symSize: 0x40 }
  - { offsetInCU: 0x54C9, offset: 0x1CB3A, size: 0x8, addend: 0x0, symName: __ZNSt3__16__moveB7v160006INS_17_ClassicAlgPolicyEPiS2_S2_EENS_4pairIT0_T2_EES4_T1_S5_, symObjAddr: 0x33F0, symBinAddr: 0x10000F880, symSize: 0x40 }
  - { offsetInCU: 0x5535, offset: 0x1CBA6, size: 0x8, addend: 0x0, symName: __ZNSt3__123__dispatch_copy_or_moveB7v160006INS_17_ClassicAlgPolicyENS_11__move_loopIS1_EENS_14__move_trivialEPiS5_S5_EENS_4pairIT2_T4_EES7_T3_S8_, symObjAddr: 0x3430, symBinAddr: 0x10000F8C0, symSize: 0x40 }
  - { offsetInCU: 0x55B3, offset: 0x1CC24, size: 0x8, addend: 0x0, symName: __ZNSt3__121__unwrap_and_dispatchB7v160006INS_10__overloadINS_11__move_loopINS_17_ClassicAlgPolicyEEENS_14__move_trivialEEEPiS7_S7_Li0EEENS_4pairIT0_T2_EES9_T1_SA_, symObjAddr: 0x3470, symBinAddr: 0x10000F900, symSize: 0xB0 }
  - { offsetInCU: 0x5688, offset: 0x1CCF9, size: 0x8, addend: 0x0, symName: __ZNSt3__119__debug_db_insert_cB7v160006INS_6vectorI19AStarInternalNode_tNS_9allocatorIS2_EEEEEEvPT_, symObjAddr: 0x38D0, symBinAddr: 0x10000FA80, symSize: 0x10 }
  - { offsetInCU: 0x56B9, offset: 0x1CD2A, size: 0x8, addend: 0x0, symName: __ZNSt3__118__debug_db_erase_cB7v160006INS_6vectorI19AStarInternalNode_tNS_9allocatorIS2_EEEEEEvPT_, symObjAddr: 0x3B60, symBinAddr: 0x10000FD10, symSize: 0x10 }
  - { offsetInCU: 0x56EA, offset: 0x1CD5B, size: 0x8, addend: 0x0, symName: __ZNSt3__112__to_addressB7v160006I19AStarInternalNode_tEEPT_S3_, symObjAddr: 0x3C60, symBinAddr: 0x10000FE10, symSize: 0x10 }
  - { offsetInCU: 0x57DD, offset: 0x1CE4E, size: 0x8, addend: 0x0, symName: __ZNSt3__18distanceB7v160006IPdEENS_15iterator_traitsIT_E15difference_typeES3_S3_, symObjAddr: 0x5000, symBinAddr: 0x100010160, symSize: 0x30 }
  - { offsetInCU: 0x5820, offset: 0x1CE91, size: 0x8, addend: 0x0, symName: __ZNSt3__14copyB7v160006IPdS1_EET0_T_S3_S2_, symObjAddr: 0x5080, symBinAddr: 0x1000101E0, symSize: 0x40 }
  - { offsetInCU: 0x587A, offset: 0x1CEEB, size: 0x8, addend: 0x0, symName: __ZNSt3__110__distanceB7v160006IPdEENS_15iterator_traitsIT_E15difference_typeES3_S3_NS_26random_access_iterator_tagE, symObjAddr: 0x5380, symBinAddr: 0x100010220, symSize: 0x20 }
  - { offsetInCU: 0x58C7, offset: 0x1CF38, size: 0x8, addend: 0x0, symName: __ZNSt3__19__advanceB7v160006IPdEEvRT_NS_15iterator_traitsIS2_E15difference_typeENS_26random_access_iterator_tagE, symObjAddr: 0x53A0, symBinAddr: 0x100010240, symSize: 0x20 }
  - { offsetInCU: 0x5910, offset: 0x1CF81, size: 0x8, addend: 0x0, symName: __ZNSt3__16__copyB7v160006INS_17_ClassicAlgPolicyEPdS2_S2_EENS_4pairIT0_T2_EES4_T1_S5_, symObjAddr: 0x53C0, symBinAddr: 0x100010260, symSize: 0x40 }
  - { offsetInCU: 0x597C, offset: 0x1CFED, size: 0x8, addend: 0x0, symName: __ZNSt3__123__dispatch_copy_or_moveB7v160006INS_17_ClassicAlgPolicyENS_11__copy_loopIS1_EENS_14__copy_trivialEPdS5_S5_EENS_4pairIT2_T4_EES7_T3_S8_, symObjAddr: 0x5400, symBinAddr: 0x1000102A0, symSize: 0x40 }
  - { offsetInCU: 0x59FA, offset: 0x1D06B, size: 0x8, addend: 0x0, symName: __ZNSt3__121__unwrap_and_dispatchB7v160006INS_10__overloadINS_11__copy_loopINS_17_ClassicAlgPolicyEEENS_14__copy_trivialEEEPdS7_S7_Li0EEENS_4pairIT0_T2_EES9_T1_SA_, symObjAddr: 0x5440, symBinAddr: 0x1000102E0, symSize: 0xB0 }
  - { offsetInCU: 0x5A89, offset: 0x1D0FA, size: 0x8, addend: 0x0, symName: __ZNSt3__114__unwrap_rangeB7v160006IPdS1_EENS_4pairIT0_S3_EET_S5_, symObjAddr: 0x54F0, symBinAddr: 0x100010390, symSize: 0x50 }
  - { offsetInCU: 0x5BD8, offset: 0x1D249, size: 0x8, addend: 0x0, symName: __ZNSt3__19make_pairB7v160006IPdS1_EENS_4pairINS_18__unwrap_ref_decayIT_E4typeENS3_IT0_E4typeEEEOS4_OS7_, symObjAddr: 0x55A0, symBinAddr: 0x100010420, symSize: 0x30 }
  - { offsetInCU: 0x5C27, offset: 0x1D298, size: 0x8, addend: 0x0, symName: __ZNSt3__114__rewrap_rangeB7v160006IPdS1_EET_S2_T0_, symObjAddr: 0x55D0, symBinAddr: 0x100010450, symSize: 0x30 }
  - { offsetInCU: 0x5C73, offset: 0x1D2E4, size: 0x8, addend: 0x0, symName: __ZNSt3__119__copy_trivial_implB7v160006IddEENS_4pairIPT_PT0_EES3_S3_S5_, symObjAddr: 0x5640, symBinAddr: 0x100010480, symSize: 0x70 }
  - { offsetInCU: 0x5CDB, offset: 0x1D34C, size: 0x8, addend: 0x0, symName: __ZNSt3__19make_pairB7v160006IRPdS1_EENS_4pairINS_18__unwrap_ref_decayIT_E4typeENS4_IT0_E4typeEEEOS5_OS8_, symObjAddr: 0x56B0, symBinAddr: 0x1000104F0, symSize: 0x30 }
  - { offsetInCU: 0x5D2A, offset: 0x1D39B, size: 0x8, addend: 0x0, symName: __ZNSt3__119__allocate_at_leastB7v160006INS_9allocatorI19AStarInternalNode_tEEEENS_19__allocation_resultINS_16allocator_traitsIT_E7pointerEEERS6_m, symObjAddr: 0x6C80, symBinAddr: 0x100010D90, symSize: 0x40 }
  - { offsetInCU: 0x5D6D, offset: 0x1D3DE, size: 0x8, addend: 0x0, symName: __ZNSt3__142__uninitialized_allocator_move_if_noexceptB7v160006INS_9allocatorI19AStarInternalNode_tEENS_16reverse_iteratorIPS2_EES6_S6_EET2_RT_T0_T1_S7_, symObjAddr: 0x6E10, symBinAddr: 0x100010F20, symSize: 0x180 }
  - { offsetInCU: 0x5E0C, offset: 0x1D47D, size: 0x8, addend: 0x0, symName: __ZNSt3__14swapB7v160006IP19AStarInternalNode_tEENS_9enable_ifIXaasr21is_move_constructibleIT_EE5valuesr18is_move_assignableIS4_EE5valueEvE4typeERS4_S7_, symObjAddr: 0x6FE0, symBinAddr: 0x1000110F0, symSize: 0x40 }
  - { offsetInCU: 0x5E5D, offset: 0x1D4CE, size: 0x8, addend: 0x0, symName: __ZNSt3__125__debug_db_invalidate_allB7v160006INS_6vectorI19AStarInternalNode_tNS_9allocatorIS2_EEEEEEvPT_, symObjAddr: 0x70C0, symBinAddr: 0x1000111D0, symSize: 0x10 }
  - { offsetInCU: 0x5E8E, offset: 0x1D4FF, size: 0x8, addend: 0x0, symName: __ZNSt3__122__make_exception_guardB7v160006INS_29_AllocatorDestroyRangeReverseINS_9allocatorI19AStarInternalNode_tEENS_16reverse_iteratorIPS3_EEEEEENS_28__exception_guard_exceptionsIT_EESA_, symObjAddr: 0x70D0, symBinAddr: 0x1000111E0, symSize: 0x60 }
  - { offsetInCU: 0x5EC3, offset: 0x1D534, size: 0x8, addend: 0x0, symName: __ZNSt3__1neB7v160006IP19AStarInternalNode_tS2_EEbRKNS_16reverse_iteratorIT_EERKNS3_IT0_EE, symObjAddr: 0x7170, symBinAddr: 0x100011280, symSize: 0x40 }
  - { offsetInCU: 0x5F0F, offset: 0x1D580, size: 0x8, addend: 0x0, symName: __ZNSt3__112__to_addressB7v160006INS_16reverse_iteratorIP19AStarInternalNode_tEEvEENS_5decayIDTclsr19__to_address_helperIT_EE6__callclsr3stdE7declvalIRKS6_EEEEE4typeES8_, symObjAddr: 0x71E0, symBinAddr: 0x1000112F0, symSize: 0x20 }
  - { offsetInCU: 0x5F6E, offset: 0x1D5DF, size: 0x8, addend: 0x0, symName: __ZNSt3__119__allocator_destroyB7v160006INS_9allocatorI19AStarInternalNode_tEENS_16reverse_iteratorINS4_IPS2_EEEES7_EEvRT_T0_T1_, symObjAddr: 0x7860, symBinAddr: 0x1000116B0, symSize: 0x70 }
  - { offsetInCU: 0x5FD1, offset: 0x1D642, size: 0x8, addend: 0x0, symName: __ZNSt3__1neB7v160006INS_16reverse_iteratorIP19AStarInternalNode_tEES4_EEbRKNS1_IT_EERKNS1_IT0_EE, symObjAddr: 0x7900, symBinAddr: 0x100011750, symSize: 0x50 }
  - { offsetInCU: 0x601D, offset: 0x1D68E, size: 0x8, addend: 0x0, symName: __ZNSt3__112__to_addressB7v160006INS_16reverse_iteratorINS1_IP19AStarInternalNode_tEEEEvEENS_5decayIDTclsr19__to_address_helperIT_EE6__callclsr3stdE7declvalIRKS7_EEEEE4typeES9_, symObjAddr: 0x7950, symBinAddr: 0x1000117A0, symSize: 0x20 }
  - { offsetInCU: 0x607C, offset: 0x1D6ED, size: 0x8, addend: 0x0, symName: __ZNSt3__130__uninitialized_allocator_copyB7v160006INS_9allocatorIiEEiiLPv0EEEPT0_RT_PKS4_S9_S5_, symObjAddr: 0x7F90, symBinAddr: 0x100011D10, symSize: 0x30 }
  - { offsetInCU: 0x60F4, offset: 0x1D765, size: 0x8, addend: 0x0, symName: __ZNSt3__14copyB7v160006IPKiPiEET0_T_S5_S4_, symObjAddr: 0x7FC0, symBinAddr: 0x100011D40, symSize: 0x40 }
  - { offsetInCU: 0x614E, offset: 0x1D7BF, size: 0x8, addend: 0x0, symName: __ZNSt3__16__copyB7v160006INS_17_ClassicAlgPolicyEPKiS3_PiEENS_4pairIT0_T2_EES6_T1_S7_, symObjAddr: 0x8000, symBinAddr: 0x100011D80, symSize: 0x40 }
  - { offsetInCU: 0x61BA, offset: 0x1D82B, size: 0x8, addend: 0x0, symName: __ZNSt3__123__dispatch_copy_or_moveB7v160006INS_17_ClassicAlgPolicyENS_11__copy_loopIS1_EENS_14__copy_trivialEPKiS6_PiEENS_4pairIT2_T4_EES9_T3_SA_, symObjAddr: 0x8040, symBinAddr: 0x100011DC0, symSize: 0x40 }
  - { offsetInCU: 0x6238, offset: 0x1D8A9, size: 0x8, addend: 0x0, symName: __ZNSt3__121__unwrap_and_dispatchB7v160006INS_10__overloadINS_11__copy_loopINS_17_ClassicAlgPolicyEEENS_14__copy_trivialEEEPKiS8_PiLi0EEENS_4pairIT0_T2_EESB_T1_SC_, symObjAddr: 0x8080, symBinAddr: 0x100011E00, symSize: 0xB0 }
  - { offsetInCU: 0x62C7, offset: 0x1D938, size: 0x8, addend: 0x0, symName: __ZNSt3__114__unwrap_rangeB7v160006IPKiS2_EENS_4pairIT0_S4_EET_S6_, symObjAddr: 0x8130, symBinAddr: 0x100011EB0, symSize: 0x50 }
  - { offsetInCU: 0x6416, offset: 0x1DA87, size: 0x8, addend: 0x0, symName: __ZNSt3__19make_pairB7v160006IPKiPiEENS_4pairINS_18__unwrap_ref_decayIT_E4typeENS5_IT0_E4typeEEEOS6_OS9_, symObjAddr: 0x81C0, symBinAddr: 0x100011F40, symSize: 0x30 }
  - { offsetInCU: 0x6465, offset: 0x1DAD6, size: 0x8, addend: 0x0, symName: __ZNSt3__114__rewrap_rangeB7v160006IPKiS2_EET_S3_T0_, symObjAddr: 0x81F0, symBinAddr: 0x100011F70, symSize: 0x30 }
  - { offsetInCU: 0x64B1, offset: 0x1DB22, size: 0x8, addend: 0x0, symName: __ZNSt3__19make_pairB7v160006IPKiS2_EENS_4pairINS_18__unwrap_ref_decayIT_E4typeENS4_IT0_E4typeEEEOS5_OS8_, symObjAddr: 0x8220, symBinAddr: 0x100011FA0, symSize: 0x30 }
  - { offsetInCU: 0x6500, offset: 0x1DB71, size: 0x8, addend: 0x0, symName: __ZNSt3__113__unwrap_iterB7v160006IPKiNS_18__unwrap_iter_implIS2_Lb1EEELi0EEEDTclsrT0_8__unwrapclsr3stdE7declvalIT_EEEES6_, symObjAddr: 0x8250, symBinAddr: 0x100011FD0, symSize: 0x20 }
  - { offsetInCU: 0x666B, offset: 0x1DCDC, size: 0x8, addend: 0x0, symName: __ZNSt3__112__to_addressB7v160006IKiEEPT_S3_, symObjAddr: 0x82F0, symBinAddr: 0x100012070, symSize: 0x10 }
  - { offsetInCU: 0x66A0, offset: 0x1DD11, size: 0x8, addend: 0x0, symName: __ZNSt3__119__copy_trivial_implB7v160006IKiiEENS_4pairIPT_PT0_EES4_S4_S6_, symObjAddr: 0x8300, symBinAddr: 0x100012080, symSize: 0x70 }
  - { offsetInCU: 0x6708, offset: 0x1DD79, size: 0x8, addend: 0x0, symName: __ZNSt3__19make_pairB7v160006IRPKiPiEENS_4pairINS_18__unwrap_ref_decayIT_E4typeENS6_IT0_E4typeEEEOS7_OSA_, symObjAddr: 0x8370, symBinAddr: 0x1000120F0, symSize: 0x30 }
  - { offsetInCU: 0x6757, offset: 0x1DDC8, size: 0x8, addend: 0x0, symName: __ZNSt3__113__rewrap_iterB7v160006IPKiS2_NS_18__unwrap_iter_implIS2_Lb1EEEEET_S5_T0_, symObjAddr: 0x8460, symBinAddr: 0x1000121E0, symSize: 0x40 }
  - { offsetInCU: 0x67AC, offset: 0x1DE1D, size: 0x8, addend: 0x0, symName: __ZNSt3__122__make_exception_guardB7v160006INS_6vectorI19AStarInternalNode_tNS_9allocatorIS2_EEE16__destroy_vectorEEENS_28__exception_guard_exceptionsIT_EES8_, symObjAddr: 0x96F0, symBinAddr: 0x100012570, symSize: 0x40 }
  - { offsetInCU: 0x67E1, offset: 0x1DE52, size: 0x8, addend: 0x0, symName: __ZNSt3__130__uninitialized_allocator_copyB7v160006INS_9allocatorI19AStarInternalNode_tEEPS2_S4_S4_EET2_RT_T0_T1_S5_, symObjAddr: 0x9940, symBinAddr: 0x1000127C0, symSize: 0x100 }
  - { offsetInCU: 0x687F, offset: 0x1DEF0, size: 0x8, addend: 0x0, symName: __ZNSt3__122__make_exception_guardB7v160006INS_29_AllocatorDestroyRangeReverseINS_9allocatorI19AStarInternalNode_tEEPS3_EEEENS_28__exception_guard_exceptionsIT_EES8_, symObjAddr: 0x9A40, symBinAddr: 0x1000128C0, symSize: 0x60 }
  - { offsetInCU: 0x68B4, offset: 0x1DF25, size: 0x8, addend: 0x0, symName: __ZNSt3__119__allocator_destroyB7v160006INS_9allocatorI19AStarInternalNode_tEENS_16reverse_iteratorIPS2_EES6_EEvRT_T0_T1_, symObjAddr: 0x9CD0, symBinAddr: 0x100012B50, symSize: 0x70 }
  - { offsetInCU: 0x6E65, offset: 0x1E4D6, size: 0x8, addend: 0x0, symName: __ZNSt3__16vectorI19AStarInternalNode_tNS_9allocatorIS1_EEE26__swap_out_circular_bufferERNS_14__split_bufferIS1_RS3_EE, symObjAddr: 0x6930, symBinAddr: 0x100010A40, symSize: 0x130 }
  - { offsetInCU: 0x8CB5, offset: 0x20326, size: 0x8, addend: 0x0, symName: __Z9SetRemoveNSt3__16vectorIiNS_9allocatorIiEEEEi, symObjAddr: 0x0, symBinAddr: 0x10000E590, symSize: 0x120 }
  - { offsetInCU: 0x8D1B, offset: 0x2038C, size: 0x8, addend: 0x0, symName: __ZNSt3__16vectorIiNS_9allocatorIiEEE5eraseB7v160006ENS_11__wrap_iterIPKiEE, symObjAddr: 0x1E0, symBinAddr: 0x10000E6B0, symSize: 0xA0 }
  - { offsetInCU: 0x8D6E, offset: 0x203DF, size: 0x8, addend: 0x0, symName: __ZNSt3__16vectorIiNS_9allocatorIiEEE5beginB7v160006Ev, symObjAddr: 0x280, symBinAddr: 0x10000E750, symSize: 0x30 }
  - { offsetInCU: 0x8D94, offset: 0x20405, size: 0x8, addend: 0x0, symName: __ZNKSt3__111__wrap_iterIPiEplB7v160006El, symObjAddr: 0x2B0, symBinAddr: 0x10000E780, symSize: 0x40 }
  - { offsetInCU: 0x8DDE, offset: 0x2044F, size: 0x8, addend: 0x0, symName: __ZNSt3__111__wrap_iterIPKiEC1B7v160006IPiEERKNS0_IT_EEPNS_9enable_ifIXsr14is_convertibleIS6_S2_EE5valueEvE4typeE, symObjAddr: 0x2F0, symBinAddr: 0x10000E7C0, symSize: 0x30 }
  - { offsetInCU: 0x8E27, offset: 0x20498, size: 0x8, addend: 0x0, symName: __Z5AStarNSt3__16vectorI11AStarNode_tNS_9allocatorIS1_EEEEii, symObjAddr: 0x340, symBinAddr: 0x10000E7F0, symSize: 0x890 }
  - { offsetInCU: 0x8FAD, offset: 0x2061E, size: 0x8, addend: 0x0, symName: __ZNSt3__16vectorI19AStarInternalNode_tNS_9allocatorIS1_EEEC1B7v160006Ev, symObjAddr: 0xBD0, symBinAddr: 0x10000F080, symSize: 0x20 }
  - { offsetInCU: 0x8FD6, offset: 0x20647, size: 0x8, addend: 0x0, symName: __ZN19AStarInternalNode_tC1Ev, symObjAddr: 0xC20, symBinAddr: 0x10000F0A0, symSize: 0x20 }
  - { offsetInCU: 0x8FFF, offset: 0x20670, size: 0x8, addend: 0x0, symName: __ZNSt3__16vectorI11AStarNode_tNS_9allocatorIS1_EEEixB7v160006Em, symObjAddr: 0xC40, symBinAddr: 0x10000F0C0, symSize: 0x20 }
  - { offsetInCU: 0x9034, offset: 0x206A5, size: 0x8, addend: 0x0, symName: __ZNSt3__16vectorIdNS_9allocatorIdEEEaSB7v160006ERKS3_, symObjAddr: 0xCC0, symBinAddr: 0x10000F0E0, symSize: 0x60 }
  - { offsetInCU: 0x9069, offset: 0x206DA, size: 0x8, addend: 0x0, symName: __ZNSt3__16vectorI19AStarInternalNode_tNS_9allocatorIS1_EEE9push_backB7v160006ERKS1_, symObjAddr: 0xD20, symBinAddr: 0x10000F140, symSize: 0x60 }
  - { offsetInCU: 0x909F, offset: 0x20710, size: 0x8, addend: 0x0, symName: __ZN19AStarInternalNode_tD1Ev, symObjAddr: 0xD80, symBinAddr: 0x10000F1A0, symSize: 0x20 }
  - { offsetInCU: 0x90C8, offset: 0x20739, size: 0x8, addend: 0x0, symName: __ZNSt3__16vectorI19AStarInternalNode_tNS_9allocatorIS1_EEEixB7v160006Em, symObjAddr: 0xDA0, symBinAddr: 0x10000F1C0, symSize: 0x20 }
  - { offsetInCU: 0x90FE, offset: 0x2076F, size: 0x8, addend: 0x0, symName: __ZNSt3__16vectorIiNS_9allocatorIiEEEC1B7v160006ESt16initializer_listIiE, symObjAddr: 0xDC0, symBinAddr: 0x10000F1E0, symSize: 0x30 }
  - { offsetInCU: 0x9137, offset: 0x207A8, size: 0x8, addend: 0x0, symName: __ZNKSt3__16vectorI19AStarInternalNode_tNS_9allocatorIS1_EEE4sizeB7v160006Ev, symObjAddr: 0xDF0, symBinAddr: 0x10000F210, symSize: 0x30 }
  - { offsetInCU: 0x915B, offset: 0x207CC, size: 0x8, addend: 0x0, symName: __ZNSt3__16vectorIiNS_9allocatorIiEEE9push_backB7v160006EOi, symObjAddr: 0xE20, symBinAddr: 0x10000F240, symSize: 0x60 }
  - { offsetInCU: 0x9190, offset: 0x20801, size: 0x8, addend: 0x0, symName: __ZNSt3__16vectorIdNS_9allocatorIdEEEixB7v160006Em, symObjAddr: 0xF00, symBinAddr: 0x10000F2A0, symSize: 0x20 }
  - { offsetInCU: 0x91C6, offset: 0x20837, size: 0x8, addend: 0x0, symName: __ZL7set_minNSt3__16vectorI19AStarInternalNode_tNS_9allocatorIS1_EEEE, symObjAddr: 0xF20, symBinAddr: 0x10000F2C0, symSize: 0xF0 }
  - { offsetInCU: 0x923A, offset: 0x208AB, size: 0x8, addend: 0x0, symName: __ZNSt3__16vectorI19AStarInternalNode_tNS_9allocatorIS1_EEEC1ERKS4_, symObjAddr: 0x1010, symBinAddr: 0x10000F3B0, symSize: 0x30 }
  - { offsetInCU: 0x9273, offset: 0x208E4, size: 0x8, addend: 0x0, symName: __ZNSt3__16vectorI19AStarInternalNode_tNS_9allocatorIS1_EEED1B7v160006Ev, symObjAddr: 0x1040, symBinAddr: 0x10000F3E0, symSize: 0x20 }
  - { offsetInCU: 0x929C, offset: 0x2090D, size: 0x8, addend: 0x0, symName: __ZL16reconstruct_pathNSt3__16vectorIiNS_9allocatorIiEEEEi, symObjAddr: 0x1060, symBinAddr: 0x10000F400, symSize: 0xB0 }
  - { offsetInCU: 0x92E6, offset: 0x20957, size: 0x8, addend: 0x0, symName: __ZNSt3__16vectorIiNS_9allocatorIiEEEaSB7v160006EOS3_, symObjAddr: 0x1140, symBinAddr: 0x10000F4B0, symSize: 0x30 }
  - { offsetInCU: 0x931C, offset: 0x2098D, size: 0x8, addend: 0x0, symName: __ZL11SetContainsNSt3__16vectorIiNS_9allocatorIiEEEEi, symObjAddr: 0x1170, symBinAddr: 0x10000F4E0, symSize: 0xA0 }
  - { offsetInCU: 0x9373, offset: 0x209E4, size: 0x8, addend: 0x0, symName: __ZNSt3__111__wrap_iterIPiEpLB7v160006El, symObjAddr: 0x1230, symBinAddr: 0x10000F580, symSize: 0x20 }
  - { offsetInCU: 0x93A5, offset: 0x20A16, size: 0x8, addend: 0x0, symName: __ZNSt3__111__wrap_iterIPKiEC2B7v160006IPiEERKNS0_IT_EEPNS_9enable_ifIXsr14is_convertibleIS6_S2_EE5valueEvE4typeE, symObjAddr: 0x1250, symBinAddr: 0x10000F5A0, symSize: 0x40 }
  - { offsetInCU: 0x93EE, offset: 0x20A5F, size: 0x8, addend: 0x0, symName: __ZNKSt3__111__wrap_iterIPiE4baseB7v160006Ev, symObjAddr: 0x1290, symBinAddr: 0x10000F5E0, symSize: 0x20 }
  - { offsetInCU: 0x9413, offset: 0x20A84, size: 0x8, addend: 0x0, symName: __ZN19AStarInternalNode_tC2Ev, symObjAddr: 0x12B0, symBinAddr: 0x10000F600, symSize: 0x30 }
  - { offsetInCU: 0x943D, offset: 0x20AAE, size: 0x8, addend: 0x0, symName: __ZN19AStarInternalNode_tD2Ev, symObjAddr: 0x12E0, symBinAddr: 0x10000F630, symSize: 0x30 }
  - { offsetInCU: 0x9466, offset: 0x20AD7, size: 0x8, addend: 0x0, symName: __ZN19AStarInternalNode_t1fEv, symObjAddr: 0x1310, symBinAddr: 0x10000F660, symSize: 0x20 }
  - { offsetInCU: 0x94BC, offset: 0x20B2D, size: 0x8, addend: 0x0, symName: __ZNSt3__16vectorIiNS_9allocatorIiEEE11__make_iterB7v160006EPi, symObjAddr: 0x30E0, symBinAddr: 0x10000F680, symSize: 0x30 }
  - { offsetInCU: 0x94EF, offset: 0x20B60, size: 0x8, addend: 0x0, symName: __ZNSt3__111__wrap_iterIPiEC1B7v160006EPKvS1_, symObjAddr: 0x3110, symBinAddr: 0x10000F6B0, symSize: 0x30 }
  - { offsetInCU: 0x9533, offset: 0x20BA4, size: 0x8, addend: 0x0, symName: __ZNSt3__111__wrap_iterIPiEC2B7v160006EPKvS1_, symObjAddr: 0x3140, symBinAddr: 0x10000F6E0, symSize: 0x20 }
  - { offsetInCU: 0x9577, offset: 0x20BE8, size: 0x8, addend: 0x0, symName: __ZNKSt3__16vectorIiNS_9allocatorIiEEE6cbeginB7v160006Ev, symObjAddr: 0x31A0, symBinAddr: 0x10000F740, symSize: 0x30 }
  - { offsetInCU: 0x959B, offset: 0x20C0C, size: 0x8, addend: 0x0, symName: __ZNKSt3__111__wrap_iterIPKiE4baseB7v160006Ev, symObjAddr: 0x3280, symBinAddr: 0x10000F7B0, symSize: 0x20 }
  - { offsetInCU: 0x95BF, offset: 0x20C30, size: 0x8, addend: 0x0, symName: __ZNKSt3__16vectorIiNS_9allocatorIiEEE5beginB7v160006Ev, symObjAddr: 0x32A0, symBinAddr: 0x10000F7D0, symSize: 0x30 }
  - { offsetInCU: 0x95E5, offset: 0x20C56, size: 0x8, addend: 0x0, symName: __ZNKSt3__16vectorIiNS_9allocatorIiEEE11__make_iterB7v160006EPKi, symObjAddr: 0x32D0, symBinAddr: 0x10000F800, symSize: 0x30 }
  - { offsetInCU: 0x9618, offset: 0x20C89, size: 0x8, addend: 0x0, symName: __ZNSt3__111__wrap_iterIPKiEC1B7v160006EPKvS2_, symObjAddr: 0x3300, symBinAddr: 0x10000F830, symSize: 0x30 }
  - { offsetInCU: 0x965C, offset: 0x20CCD, size: 0x8, addend: 0x0, symName: __ZNSt3__111__wrap_iterIPKiEC2B7v160006EPKvS2_, symObjAddr: 0x3330, symBinAddr: 0x10000F860, symSize: 0x20 }
  - { offsetInCU: 0x96AA, offset: 0x20D1B, size: 0x8, addend: 0x0, symName: __ZNKSt3__114__move_trivialclB7v160006IiiLi0EEENS_4pairIPT_PT0_EES4_S4_S6_, symObjAddr: 0x3570, symBinAddr: 0x10000F9B0, symSize: 0x40 }
  - { offsetInCU: 0x9715, offset: 0x20D86, size: 0x8, addend: 0x0, symName: __ZNSt3__16vectorI19AStarInternalNode_tNS_9allocatorIS1_EEEC2B7v160006Ev, symObjAddr: 0x3840, symBinAddr: 0x10000F9F0, symSize: 0x60 }
  - { offsetInCU: 0x973D, offset: 0x20DAE, size: 0x8, addend: 0x0, symName: __ZNSt3__117__compressed_pairIP19AStarInternalNode_tNS_9allocatorIS1_EEEC1B7v160006IDnNS_18__default_init_tagEEEOT_OT0_, symObjAddr: 0x38A0, symBinAddr: 0x10000FA50, symSize: 0x30 }
  - { offsetInCU: 0x9793, offset: 0x20E04, size: 0x8, addend: 0x0, symName: __ZNSt3__117__compressed_pairIP19AStarInternalNode_tNS_9allocatorIS1_EEEC2B7v160006IDnNS_18__default_init_tagEEEOT_OT0_, symObjAddr: 0x38E0, symBinAddr: 0x10000FA90, symSize: 0x40 }
  - { offsetInCU: 0x97E9, offset: 0x20E5A, size: 0x8, addend: 0x0, symName: __ZNSt3__122__compressed_pair_elemIP19AStarInternalNode_tLi0ELb0EEC2B7v160006IDnvEEOT_, symObjAddr: 0x3920, symBinAddr: 0x10000FAD0, symSize: 0x20 }
  - { offsetInCU: 0x9829, offset: 0x20E9A, size: 0x8, addend: 0x0, symName: __ZNSt3__122__compressed_pair_elemINS_9allocatorI19AStarInternalNode_tEELi1ELb1EEC2B7v160006ENS_18__default_init_tagE, symObjAddr: 0x3940, symBinAddr: 0x10000FAF0, symSize: 0x20 }
  - { offsetInCU: 0x985B, offset: 0x20ECC, size: 0x8, addend: 0x0, symName: __ZNSt3__19allocatorI19AStarInternalNode_tEC2B7v160006Ev, symObjAddr: 0x3960, symBinAddr: 0x10000FB10, symSize: 0x20 }
  - { offsetInCU: 0x9883, offset: 0x20EF4, size: 0x8, addend: 0x0, symName: __ZNSt3__116__non_trivial_ifILb1ENS_9allocatorI19AStarInternalNode_tEEEC2B7v160006Ev, symObjAddr: 0x3980, symBinAddr: 0x10000FB30, symSize: 0x10 }
  - { offsetInCU: 0x98AB, offset: 0x20F1C, size: 0x8, addend: 0x0, symName: __ZNSt3__16vectorI19AStarInternalNode_tNS_9allocatorIS1_EEED2B7v160006Ev, symObjAddr: 0x3990, symBinAddr: 0x10000FB40, symSize: 0x40 }
  - { offsetInCU: 0x98D3, offset: 0x20F44, size: 0x8, addend: 0x0, symName: __ZNSt3__16vectorI19AStarInternalNode_tNS_9allocatorIS1_EEE16__destroy_vectorC1ERS4_, symObjAddr: 0x39D0, symBinAddr: 0x10000FB80, symSize: 0x30 }
  - { offsetInCU: 0x990A, offset: 0x20F7B, size: 0x8, addend: 0x0, symName: __ZNSt3__16vectorI19AStarInternalNode_tNS_9allocatorIS1_EEE16__destroy_vectorclB7v160006Ev, symObjAddr: 0x3A00, symBinAddr: 0x10000FBB0, symSize: 0x90 }
  - { offsetInCU: 0x992E, offset: 0x20F9F, size: 0x8, addend: 0x0, symName: __ZNSt3__16vectorI19AStarInternalNode_tNS_9allocatorIS1_EEE16__destroy_vectorC2ERS4_, symObjAddr: 0x3A90, symBinAddr: 0x10000FC40, symSize: 0x20 }
  - { offsetInCU: 0x9965, offset: 0x20FD6, size: 0x8, addend: 0x0, symName: __ZNKSt3__16vectorI19AStarInternalNode_tNS_9allocatorIS1_EEE17__annotate_deleteB7v160006Ev, symObjAddr: 0x3AB0, symBinAddr: 0x10000FC60, symSize: 0xB0 }
  - { offsetInCU: 0x9989, offset: 0x20FFA, size: 0x8, addend: 0x0, symName: __ZNSt3__16vectorI19AStarInternalNode_tNS_9allocatorIS1_EEE7__clearB7v160006Ev, symObjAddr: 0x3B70, symBinAddr: 0x10000FD20, symSize: 0x20 }
  - { offsetInCU: 0x99AE, offset: 0x2101F, size: 0x8, addend: 0x0, symName: __ZNSt3__116allocator_traitsINS_9allocatorI19AStarInternalNode_tEEE10deallocateB7v160006ERS3_PS2_m, symObjAddr: 0x3B90, symBinAddr: 0x10000FD40, symSize: 0x30 }
  - { offsetInCU: 0x99EF, offset: 0x21060, size: 0x8, addend: 0x0, symName: __ZNSt3__16vectorI19AStarInternalNode_tNS_9allocatorIS1_EEE7__allocB7v160006Ev, symObjAddr: 0x3BC0, symBinAddr: 0x10000FD70, symSize: 0x20 }
  - { offsetInCU: 0x9A13, offset: 0x21084, size: 0x8, addend: 0x0, symName: __ZNKSt3__16vectorI19AStarInternalNode_tNS_9allocatorIS1_EEE8capacityB7v160006Ev, symObjAddr: 0x3BE0, symBinAddr: 0x10000FD90, symSize: 0x40 }
  - { offsetInCU: 0x9A37, offset: 0x210A8, size: 0x8, addend: 0x0, symName: __ZNKSt3__16vectorI19AStarInternalNode_tNS_9allocatorIS1_EEE31__annotate_contiguous_containerB7v160006EPKvS6_S6_S6_, symObjAddr: 0x3C20, symBinAddr: 0x10000FDD0, symSize: 0x20 }
  - { offsetInCU: 0x9A87, offset: 0x210F8, size: 0x8, addend: 0x0, symName: __ZNKSt3__16vectorI19AStarInternalNode_tNS_9allocatorIS1_EEE4dataB7v160006Ev, symObjAddr: 0x3C40, symBinAddr: 0x10000FDF0, symSize: 0x20 }
  - { offsetInCU: 0x9AAB, offset: 0x2111C, size: 0x8, addend: 0x0, symName: __ZNSt3__16vectorI19AStarInternalNode_tNS_9allocatorIS1_EEE22__base_destruct_at_endB7v160006EPS1_, symObjAddr: 0x3C70, symBinAddr: 0x10000FE20, symSize: 0x80 }
  - { offsetInCU: 0x9AEE, offset: 0x2115F, size: 0x8, addend: 0x0, symName: __ZNSt3__116allocator_traitsINS_9allocatorI19AStarInternalNode_tEEE7destroyB7v160006IS2_vEEvRS3_PT_, symObjAddr: 0x3CF0, symBinAddr: 0x10000FEA0, symSize: 0x30 }
  - { offsetInCU: 0x9B2A, offset: 0x2119B, size: 0x8, addend: 0x0, symName: __ZNSt3__19allocatorI19AStarInternalNode_tE7destroyB7v160006EPS1_, symObjAddr: 0x3D20, symBinAddr: 0x10000FED0, symSize: 0x20 }
  - { offsetInCU: 0x9B5C, offset: 0x211CD, size: 0x8, addend: 0x0, symName: __ZNSt3__19allocatorI19AStarInternalNode_tE10deallocateB7v160006EPS1_m, symObjAddr: 0x3D40, symBinAddr: 0x10000FEF0, symSize: 0x50 }
  - { offsetInCU: 0x9B9C, offset: 0x2120D, size: 0x8, addend: 0x0, symName: __ZNSt3__117__compressed_pairIP19AStarInternalNode_tNS_9allocatorIS1_EEE6secondB7v160006Ev, symObjAddr: 0x3D90, symBinAddr: 0x10000FF40, symSize: 0x20 }
  - { offsetInCU: 0x9BC0, offset: 0x21231, size: 0x8, addend: 0x0, symName: __ZNSt3__122__compressed_pair_elemINS_9allocatorI19AStarInternalNode_tEELi1ELb1EE5__getB7v160006Ev, symObjAddr: 0x3DB0, symBinAddr: 0x10000FF60, symSize: 0x10 }
  - { offsetInCU: 0x9BE4, offset: 0x21255, size: 0x8, addend: 0x0, symName: __ZNKSt3__16vectorI19AStarInternalNode_tNS_9allocatorIS1_EEE9__end_capB7v160006Ev, symObjAddr: 0x3DC0, symBinAddr: 0x10000FF70, symSize: 0x20 }
  - { offsetInCU: 0x9C08, offset: 0x21279, size: 0x8, addend: 0x0, symName: __ZNKSt3__117__compressed_pairIP19AStarInternalNode_tNS_9allocatorIS1_EEE5firstB7v160006Ev, symObjAddr: 0x3DE0, symBinAddr: 0x10000FF90, symSize: 0x20 }
  - { offsetInCU: 0x9C2C, offset: 0x2129D, size: 0x8, addend: 0x0, symName: __ZNKSt3__122__compressed_pair_elemIP19AStarInternalNode_tLi0ELb0EE5__getB7v160006Ev, symObjAddr: 0x3E00, symBinAddr: 0x10000FFB0, symSize: 0x10 }
  - { offsetInCU: 0x9C5A, offset: 0x212CB, size: 0x8, addend: 0x0, symName: __ZNSt3__16vectorIdNS_9allocatorIdEEE19__copy_assign_allocB7v160006ERKS3_, symObjAddr: 0x4E60, symBinAddr: 0x10000FFC0, symSize: 0x30 }
  - { offsetInCU: 0x9C8D, offset: 0x212FE, size: 0x8, addend: 0x0, symName: __ZNSt3__16vectorIdNS_9allocatorIdEEE6assignIPdLi0EEEvT_S6_, symObjAddr: 0x4E90, symBinAddr: 0x10000FFF0, symSize: 0x160 }
  - { offsetInCU: 0x9D2A, offset: 0x2139B, size: 0x8, addend: 0x0, symName: __ZNSt3__16vectorIdNS_9allocatorIdEEE19__copy_assign_allocB7v160006ERKS3_NS_17integral_constantIbLb0EEE, symObjAddr: 0x4FF0, symBinAddr: 0x100010150, symSize: 0x10 }
  - { offsetInCU: 0x9D7D, offset: 0x213EE, size: 0x8, addend: 0x0, symName: __ZNKSt3__114__copy_trivialclB7v160006IddLi0EEENS_4pairIPT_PT0_EES4_S4_S6_, symObjAddr: 0x5540, symBinAddr: 0x1000103E0, symSize: 0x40 }
  - { offsetInCU: 0x9DE8, offset: 0x21459, size: 0x8, addend: 0x0, symName: __ZNSt3__14pairIPdS1_EC1B7v160006IRS1_S1_LPv0EEEOT_OT0_, symObjAddr: 0x56E0, symBinAddr: 0x100010520, symSize: 0x30 }
  - { offsetInCU: 0x9E44, offset: 0x214B5, size: 0x8, addend: 0x0, symName: __ZNSt3__14pairIPdS1_EC2B7v160006IRS1_S1_LPv0EEEOT_OT0_, symObjAddr: 0x5710, symBinAddr: 0x100010550, symSize: 0x30 }
  - { offsetInCU: 0x9EA0, offset: 0x21511, size: 0x8, addend: 0x0, symName: __ZNSt3__14pairIPdS1_EC1B7v160006IS1_S1_LPv0EEEOT_OT0_, symObjAddr: 0x5760, symBinAddr: 0x100010580, symSize: 0x30 }
  - { offsetInCU: 0x9EFC, offset: 0x2156D, size: 0x8, addend: 0x0, symName: __ZNSt3__14pairIPdS1_EC2B7v160006IS1_S1_LPv0EEEOT_OT0_, symObjAddr: 0x5790, symBinAddr: 0x1000105B0, symSize: 0x30 }
  - { offsetInCU: 0x9F71, offset: 0x215E2, size: 0x8, addend: 0x0, symName: __ZNSt3__16vectorI19AStarInternalNode_tNS_9allocatorIS1_EEE9__end_capB7v160006Ev, symObjAddr: 0x61F0, symBinAddr: 0x1000105E0, symSize: 0x20 }
  - { offsetInCU: 0x9F95, offset: 0x21606, size: 0x8, addend: 0x0, symName: __ZNSt3__16vectorI19AStarInternalNode_tNS_9allocatorIS1_EEE22__construct_one_at_endB7v160006IJRKS1_EEEvDpOT_, symObjAddr: 0x6210, symBinAddr: 0x100010600, symSize: 0x90 }
  - { offsetInCU: 0x9FE2, offset: 0x21653, size: 0x8, addend: 0x0, symName: __ZNSt3__16vectorI19AStarInternalNode_tNS_9allocatorIS1_EEE21__push_back_slow_pathIRKS1_EEvOT_, symObjAddr: 0x62A0, symBinAddr: 0x100010690, symSize: 0xD0 }
  - { offsetInCU: 0xA03E, offset: 0x216AF, size: 0x8, addend: 0x0, symName: __ZNSt3__117__compressed_pairIP19AStarInternalNode_tNS_9allocatorIS1_EEE5firstB7v160006Ev, symObjAddr: 0x6370, symBinAddr: 0x100010760, symSize: 0x20 }
  - { offsetInCU: 0xA062, offset: 0x216D3, size: 0x8, addend: 0x0, symName: __ZNSt3__122__compressed_pair_elemIP19AStarInternalNode_tLi0ELb0EE5__getB7v160006Ev, symObjAddr: 0x6390, symBinAddr: 0x100010780, symSize: 0x10 }
  - { offsetInCU: 0xA09F, offset: 0x21710, size: 0x8, addend: 0x0, symName: __ZNSt3__16vectorI19AStarInternalNode_tNS_9allocatorIS1_EEE21_ConstructTransactionC1B7v160006ERS4_m, symObjAddr: 0x63A0, symBinAddr: 0x100010790, symSize: 0x30 }
  - { offsetInCU: 0xA0E6, offset: 0x21757, size: 0x8, addend: 0x0, symName: __ZNSt3__116allocator_traitsINS_9allocatorI19AStarInternalNode_tEEE9constructB7v160006IS2_JRKS2_EvEEvRS3_PT_DpOT0_, symObjAddr: 0x63D0, symBinAddr: 0x1000107C0, symSize: 0x30 }
  - { offsetInCU: 0xA13C, offset: 0x217AD, size: 0x8, addend: 0x0, symName: __ZNSt3__16vectorI19AStarInternalNode_tNS_9allocatorIS1_EEE21_ConstructTransactionD1B7v160006Ev, symObjAddr: 0x6400, symBinAddr: 0x1000107F0, symSize: 0x20 }
  - { offsetInCU: 0xA164, offset: 0x217D5, size: 0x8, addend: 0x0, symName: __ZNSt3__16vectorI19AStarInternalNode_tNS_9allocatorIS1_EEE21_ConstructTransactionC2B7v160006ERS4_m, symObjAddr: 0x6420, symBinAddr: 0x100010810, symSize: 0x40 }
  - { offsetInCU: 0xA1AA, offset: 0x2181B, size: 0x8, addend: 0x0, symName: __ZNSt3__19allocatorI19AStarInternalNode_tE9constructB7v160006IS1_JRKS1_EEEvPT_DpOT0_, symObjAddr: 0x6460, symBinAddr: 0x100010850, symSize: 0x30 }
  - { offsetInCU: 0xA1FF, offset: 0x21870, size: 0x8, addend: 0x0, symName: __ZN19AStarInternalNode_tC1ERKS_, symObjAddr: 0x6490, symBinAddr: 0x100010880, symSize: 0x30 }
  - { offsetInCU: 0xA232, offset: 0x218A3, size: 0x8, addend: 0x0, symName: __ZN19AStarInternalNode_tC2ERKS_, symObjAddr: 0x64C0, symBinAddr: 0x1000108B0, symSize: 0x90 }
  - { offsetInCU: 0xA264, offset: 0x218D5, size: 0x8, addend: 0x0, symName: __ZNSt3__16vectorI19AStarInternalNode_tNS_9allocatorIS1_EEE21_ConstructTransactionD2B7v160006Ev, symObjAddr: 0x6830, symBinAddr: 0x100010940, symSize: 0x20 }
  - { offsetInCU: 0xA28C, offset: 0x218FD, size: 0x8, addend: 0x0, symName: __ZNKSt3__16vectorI19AStarInternalNode_tNS_9allocatorIS1_EEE11__recommendB7v160006Em, symObjAddr: 0x6850, symBinAddr: 0x100010960, symSize: 0xA0 }
  - { offsetInCU: 0xA2E0, offset: 0x21951, size: 0x8, addend: 0x0, symName: __ZNSt3__114__split_bufferI19AStarInternalNode_tRNS_9allocatorIS1_EEEC1EmmS4_, symObjAddr: 0x68F0, symBinAddr: 0x100010A00, symSize: 0x40 }
  - { offsetInCU: 0xA335, offset: 0x219A6, size: 0x8, addend: 0x0, symName: __ZNSt3__114__split_bufferI19AStarInternalNode_tRNS_9allocatorIS1_EEED1Ev, symObjAddr: 0x6A60, symBinAddr: 0x100010B70, symSize: 0x20 }
  - { offsetInCU: 0xA35F, offset: 0x219D0, size: 0x8, addend: 0x0, symName: __ZNKSt3__16vectorI19AStarInternalNode_tNS_9allocatorIS1_EEE8max_sizeEv, symObjAddr: 0x6A80, symBinAddr: 0x100010B90, symSize: 0x60 }
  - { offsetInCU: 0xA385, offset: 0x219F6, size: 0x8, addend: 0x0, symName: __ZNKSt3__16vectorI19AStarInternalNode_tNS_9allocatorIS1_EEE20__throw_length_errorB7v160006Ev, symObjAddr: 0x6AE0, symBinAddr: 0x100010BF0, symSize: 0x20 }
  - { offsetInCU: 0xA3B4, offset: 0x21A25, size: 0x8, addend: 0x0, symName: __ZNSt3__116allocator_traitsINS_9allocatorI19AStarInternalNode_tEEE8max_sizeB7v160006IS3_vEEmRKS3_, symObjAddr: 0x6B00, symBinAddr: 0x100010C10, symSize: 0x20 }
  - { offsetInCU: 0xA3E1, offset: 0x21A52, size: 0x8, addend: 0x0, symName: __ZNKSt3__16vectorI19AStarInternalNode_tNS_9allocatorIS1_EEE7__allocB7v160006Ev, symObjAddr: 0x6B20, symBinAddr: 0x100010C30, symSize: 0x20 }
  - { offsetInCU: 0xA405, offset: 0x21A76, size: 0x8, addend: 0x0, symName: __ZNKSt3__19allocatorI19AStarInternalNode_tE8max_sizeB7v160006Ev, symObjAddr: 0x6B40, symBinAddr: 0x100010C50, symSize: 0x20 }
  - { offsetInCU: 0xA429, offset: 0x21A9A, size: 0x8, addend: 0x0, symName: __ZNKSt3__117__compressed_pairIP19AStarInternalNode_tNS_9allocatorIS1_EEE6secondB7v160006Ev, symObjAddr: 0x6B60, symBinAddr: 0x100010C70, symSize: 0x20 }
  - { offsetInCU: 0xA44D, offset: 0x21ABE, size: 0x8, addend: 0x0, symName: __ZNKSt3__122__compressed_pair_elemINS_9allocatorI19AStarInternalNode_tEELi1ELb1EE5__getB7v160006Ev, symObjAddr: 0x6B80, symBinAddr: 0x100010C90, symSize: 0x10 }
  - { offsetInCU: 0xA472, offset: 0x21AE3, size: 0x8, addend: 0x0, symName: __ZNSt3__114__split_bufferI19AStarInternalNode_tRNS_9allocatorIS1_EEEC2EmmS4_, symObjAddr: 0x6B90, symBinAddr: 0x100010CA0, symSize: 0xC0 }
  - { offsetInCU: 0xA4E3, offset: 0x21B54, size: 0x8, addend: 0x0, symName: __ZNSt3__117__compressed_pairIP19AStarInternalNode_tRNS_9allocatorIS1_EEEC1B7v160006IDnS5_EEOT_OT0_, symObjAddr: 0x6C50, symBinAddr: 0x100010D60, symSize: 0x30 }
  - { offsetInCU: 0xA539, offset: 0x21BAA, size: 0x8, addend: 0x0, symName: __ZNSt3__114__split_bufferI19AStarInternalNode_tRNS_9allocatorIS1_EEE7__allocB7v160006Ev, symObjAddr: 0x6CC0, symBinAddr: 0x100010DD0, symSize: 0x20 }
  - { offsetInCU: 0xA55D, offset: 0x21BCE, size: 0x8, addend: 0x0, symName: __ZNSt3__114__split_bufferI19AStarInternalNode_tRNS_9allocatorIS1_EEE9__end_capB7v160006Ev, symObjAddr: 0x6CE0, symBinAddr: 0x100010DF0, symSize: 0x20 }
  - { offsetInCU: 0xA581, offset: 0x21BF2, size: 0x8, addend: 0x0, symName: __ZNSt3__117__compressed_pairIP19AStarInternalNode_tRNS_9allocatorIS1_EEEC2B7v160006IDnS5_EEOT_OT0_, symObjAddr: 0x6D00, symBinAddr: 0x100010E10, symSize: 0x40 }
  - { offsetInCU: 0xA5D7, offset: 0x21C48, size: 0x8, addend: 0x0, symName: __ZNSt3__122__compressed_pair_elemIRNS_9allocatorI19AStarInternalNode_tEELi1ELb0EEC2B7v160006IS4_vEEOT_, symObjAddr: 0x6D40, symBinAddr: 0x100010E50, symSize: 0x20 }
  - { offsetInCU: 0xA617, offset: 0x21C88, size: 0x8, addend: 0x0, symName: __ZNSt3__19allocatorI19AStarInternalNode_tE8allocateB7v160006Em, symObjAddr: 0x6D60, symBinAddr: 0x100010E70, symSize: 0x50 }
  - { offsetInCU: 0xA649, offset: 0x21CBA, size: 0x8, addend: 0x0, symName: __ZNSt3__117__compressed_pairIP19AStarInternalNode_tRNS_9allocatorIS1_EEE6secondB7v160006Ev, symObjAddr: 0x6DB0, symBinAddr: 0x100010EC0, symSize: 0x20 }
  - { offsetInCU: 0xA66D, offset: 0x21CDE, size: 0x8, addend: 0x0, symName: __ZNSt3__122__compressed_pair_elemIRNS_9allocatorI19AStarInternalNode_tEELi1ELb0EE5__getB7v160006Ev, symObjAddr: 0x6DD0, symBinAddr: 0x100010EE0, symSize: 0x20 }
  - { offsetInCU: 0xA691, offset: 0x21D02, size: 0x8, addend: 0x0, symName: __ZNSt3__117__compressed_pairIP19AStarInternalNode_tRNS_9allocatorIS1_EEE5firstB7v160006Ev, symObjAddr: 0x6DF0, symBinAddr: 0x100010F00, symSize: 0x20 }
  - { offsetInCU: 0xA6B5, offset: 0x21D26, size: 0x8, addend: 0x0, symName: __ZNSt3__116reverse_iteratorIP19AStarInternalNode_tEC1B7v160006ES2_, symObjAddr: 0x6F90, symBinAddr: 0x1000110A0, symSize: 0x30 }
  - { offsetInCU: 0xA6EB, offset: 0x21D5C, size: 0x8, addend: 0x0, symName: __ZNKSt3__116reverse_iteratorIP19AStarInternalNode_tE4baseB7v160006Ev, symObjAddr: 0x6FC0, symBinAddr: 0x1000110D0, symSize: 0x20 }
  - { offsetInCU: 0xA70F, offset: 0x21D80, size: 0x8, addend: 0x0, symName: __ZNKSt3__16vectorI19AStarInternalNode_tNS_9allocatorIS1_EEE14__annotate_newB7v160006Em, symObjAddr: 0x7020, symBinAddr: 0x100011130, symSize: 0xA0 }
  - { offsetInCU: 0xA742, offset: 0x21DB3, size: 0x8, addend: 0x0, symName: __ZNSt3__129_AllocatorDestroyRangeReverseINS_9allocatorI19AStarInternalNode_tEENS_16reverse_iteratorIPS2_EEEC1B7v160006ERS3_RS6_S9_, symObjAddr: 0x7130, symBinAddr: 0x100011240, symSize: 0x40 }
  - { offsetInCU: 0xA79D, offset: 0x21E0E, size: 0x8, addend: 0x0, symName: __ZNSt3__116allocator_traitsINS_9allocatorI19AStarInternalNode_tEEE9constructB7v160006IS2_JS2_EvEEvRS3_PT_DpOT0_, symObjAddr: 0x71B0, symBinAddr: 0x1000112C0, symSize: 0x30 }
  - { offsetInCU: 0xA7F3, offset: 0x21E64, size: 0x8, addend: 0x0, symName: __ZNKSt3__116reverse_iteratorIP19AStarInternalNode_tEdeB7v160006Ev, symObjAddr: 0x7200, symBinAddr: 0x100011310, symSize: 0x30 }
  - { offsetInCU: 0xA825, offset: 0x21E96, size: 0x8, addend: 0x0, symName: __ZNSt3__116reverse_iteratorIP19AStarInternalNode_tEppB7v160006Ev, symObjAddr: 0x7230, symBinAddr: 0x100011340, symSize: 0x20 }
  - { offsetInCU: 0xA849, offset: 0x21EBA, size: 0x8, addend: 0x0, symName: __ZNSt3__128__exception_guard_exceptionsINS_29_AllocatorDestroyRangeReverseINS_9allocatorI19AStarInternalNode_tEENS_16reverse_iteratorIPS3_EEEEE10__completeB7v160006Ev, symObjAddr: 0x7250, symBinAddr: 0x100011360, symSize: 0x20 }
  - { offsetInCU: 0xA86D, offset: 0x21EDE, size: 0x8, addend: 0x0, symName: __ZNSt3__128__exception_guard_exceptionsINS_29_AllocatorDestroyRangeReverseINS_9allocatorI19AStarInternalNode_tEENS_16reverse_iteratorIPS3_EEEEED1B7v160006Ev, symObjAddr: 0x7270, symBinAddr: 0x100011380, symSize: 0x20 }
  - { offsetInCU: 0xA895, offset: 0x21F06, size: 0x8, addend: 0x0, symName: __ZNSt3__128__exception_guard_exceptionsINS_29_AllocatorDestroyRangeReverseINS_9allocatorI19AStarInternalNode_tEENS_16reverse_iteratorIPS3_EEEEEC1B7v160006ES8_, symObjAddr: 0x7290, symBinAddr: 0x1000113A0, symSize: 0x40 }
  - { offsetInCU: 0xA8CB, offset: 0x21F3C, size: 0x8, addend: 0x0, symName: __ZNSt3__128__exception_guard_exceptionsINS_29_AllocatorDestroyRangeReverseINS_9allocatorI19AStarInternalNode_tEENS_16reverse_iteratorIPS3_EEEEEC2B7v160006ES8_, symObjAddr: 0x72D0, symBinAddr: 0x1000113E0, symSize: 0x30 }
  - { offsetInCU: 0xA901, offset: 0x21F72, size: 0x8, addend: 0x0, symName: __ZNSt3__129_AllocatorDestroyRangeReverseINS_9allocatorI19AStarInternalNode_tEENS_16reverse_iteratorIPS2_EEEC2B7v160006ERS3_RS6_S9_, symObjAddr: 0x7300, symBinAddr: 0x100011410, symSize: 0x40 }
  - { offsetInCU: 0xA956, offset: 0x21FC7, size: 0x8, addend: 0x0, symName: __ZNSt3__19allocatorI19AStarInternalNode_tE9constructB7v160006IS1_JS1_EEEvPT_DpOT0_, symObjAddr: 0x7340, symBinAddr: 0x100011450, symSize: 0x30 }
  - { offsetInCU: 0xA9AB, offset: 0x2201C, size: 0x8, addend: 0x0, symName: __ZN19AStarInternalNode_tC1EOS_, symObjAddr: 0x7370, symBinAddr: 0x100011480, symSize: 0x30 }
  - { offsetInCU: 0xA9DE, offset: 0x2204F, size: 0x8, addend: 0x0, symName: __ZN19AStarInternalNode_tC2EOS_, symObjAddr: 0x73A0, symBinAddr: 0x1000114B0, symSize: 0x70 }
  - { offsetInCU: 0xAA16, offset: 0x22087, size: 0x8, addend: 0x0, symName: __ZNSt3__119__to_address_helperINS_16reverse_iteratorIP19AStarInternalNode_tEEvE6__callB7v160006ERKS4_, symObjAddr: 0x76D0, symBinAddr: 0x100011520, symSize: 0x40 }
  - { offsetInCU: 0xAA38, offset: 0x220A9, size: 0x8, addend: 0x0, symName: __ZNKSt3__116reverse_iteratorIP19AStarInternalNode_tEptB7v160006Ev, symObjAddr: 0x7710, symBinAddr: 0x100011560, symSize: 0x20 }
  - { offsetInCU: 0xAA5C, offset: 0x220CD, size: 0x8, addend: 0x0, symName: __ZNSt3__128__exception_guard_exceptionsINS_29_AllocatorDestroyRangeReverseINS_9allocatorI19AStarInternalNode_tEENS_16reverse_iteratorIPS3_EEEEED2B7v160006Ev, symObjAddr: 0x7730, symBinAddr: 0x100011580, symSize: 0x40 }
  - { offsetInCU: 0xAA84, offset: 0x220F5, size: 0x8, addend: 0x0, symName: __ZNKSt3__129_AllocatorDestroyRangeReverseINS_9allocatorI19AStarInternalNode_tEENS_16reverse_iteratorIPS2_EEEclB7v160006Ev, symObjAddr: 0x7770, symBinAddr: 0x1000115C0, symSize: 0xF0 }
  - { offsetInCU: 0xAAA9, offset: 0x2211A, size: 0x8, addend: 0x0, symName: __ZNSt3__116reverse_iteratorINS0_IP19AStarInternalNode_tEEEC1B7v160006ES3_, symObjAddr: 0x78D0, symBinAddr: 0x100011720, symSize: 0x30 }
  - { offsetInCU: 0xAADF, offset: 0x22150, size: 0x8, addend: 0x0, symName: __ZNSt3__116reverse_iteratorINS0_IP19AStarInternalNode_tEEEppB7v160006Ev, symObjAddr: 0x7970, symBinAddr: 0x1000117C0, symSize: 0x30 }
  - { offsetInCU: 0xAB03, offset: 0x22174, size: 0x8, addend: 0x0, symName: __ZNKSt3__116reverse_iteratorINS0_IP19AStarInternalNode_tEEE4baseB7v160006Ev, symObjAddr: 0x79A0, symBinAddr: 0x1000117F0, symSize: 0x20 }
  - { offsetInCU: 0xAB2D, offset: 0x2219E, size: 0x8, addend: 0x0, symName: __ZNSt3__119__to_address_helperINS_16reverse_iteratorINS1_IP19AStarInternalNode_tEEEEvE6__callB7v160006ERKS5_, symObjAddr: 0x79C0, symBinAddr: 0x100011810, symSize: 0x40 }
  - { offsetInCU: 0xAB4F, offset: 0x221C0, size: 0x8, addend: 0x0, symName: __ZNKSt3__116reverse_iteratorINS0_IP19AStarInternalNode_tEEEptB7v160006Ev, symObjAddr: 0x7A00, symBinAddr: 0x100011850, symSize: 0x20 }
  - { offsetInCU: 0xAB73, offset: 0x221E4, size: 0x8, addend: 0x0, symName: __ZNKSt3__116reverse_iteratorINS0_IP19AStarInternalNode_tEEEdeB7v160006Ev, symObjAddr: 0x7A20, symBinAddr: 0x100011870, symSize: 0x40 }
  - { offsetInCU: 0xABA5, offset: 0x22216, size: 0x8, addend: 0x0, symName: __ZNSt3__116reverse_iteratorIP19AStarInternalNode_tEmmB7v160006Ev, symObjAddr: 0x7A60, symBinAddr: 0x1000118B0, symSize: 0x20 }
  - { offsetInCU: 0xABC9, offset: 0x2223A, size: 0x8, addend: 0x0, symName: __ZNSt3__116reverse_iteratorINS0_IP19AStarInternalNode_tEEEC2B7v160006ES3_, symObjAddr: 0x7A80, symBinAddr: 0x1000118D0, symSize: 0x40 }
  - { offsetInCU: 0xABFF, offset: 0x22270, size: 0x8, addend: 0x0, symName: __ZNSt3__116reverse_iteratorIP19AStarInternalNode_tEC2B7v160006ES2_, symObjAddr: 0x7AC0, symBinAddr: 0x100011910, symSize: 0x30 }
  - { offsetInCU: 0xAC36, offset: 0x222A7, size: 0x8, addend: 0x0, symName: __ZNSt3__114__split_bufferI19AStarInternalNode_tRNS_9allocatorIS1_EEED2Ev, symObjAddr: 0x7AF0, symBinAddr: 0x100011940, symSize: 0x70 }
  - { offsetInCU: 0xAC60, offset: 0x222D1, size: 0x8, addend: 0x0, symName: __ZNSt3__114__split_bufferI19AStarInternalNode_tRNS_9allocatorIS1_EEE5clearB7v160006Ev, symObjAddr: 0x7B60, symBinAddr: 0x1000119B0, symSize: 0x20 }
  - { offsetInCU: 0xAC84, offset: 0x222F5, size: 0x8, addend: 0x0, symName: __ZNKSt3__114__split_bufferI19AStarInternalNode_tRNS_9allocatorIS1_EEE8capacityB7v160006Ev, symObjAddr: 0x7B80, symBinAddr: 0x1000119D0, symSize: 0x40 }
  - { offsetInCU: 0xACA8, offset: 0x22319, size: 0x8, addend: 0x0, symName: __ZNSt3__114__split_bufferI19AStarInternalNode_tRNS_9allocatorIS1_EEE17__destruct_at_endB7v160006EPS1_, symObjAddr: 0x7BC0, symBinAddr: 0x100011A10, symSize: 0x30 }
  - { offsetInCU: 0xACDA, offset: 0x2234B, size: 0x8, addend: 0x0, symName: __ZNSt3__114__split_bufferI19AStarInternalNode_tRNS_9allocatorIS1_EEE17__destruct_at_endB7v160006EPS1_NS_17integral_constantIbLb0EEE, symObjAddr: 0x7BF0, symBinAddr: 0x100011A40, symSize: 0x80 }
  - { offsetInCU: 0xAD18, offset: 0x22389, size: 0x8, addend: 0x0, symName: __ZNKSt3__114__split_bufferI19AStarInternalNode_tRNS_9allocatorIS1_EEE9__end_capB7v160006Ev, symObjAddr: 0x7C70, symBinAddr: 0x100011AC0, symSize: 0x20 }
  - { offsetInCU: 0xAD3C, offset: 0x223AD, size: 0x8, addend: 0x0, symName: __ZNKSt3__117__compressed_pairIP19AStarInternalNode_tRNS_9allocatorIS1_EEE5firstB7v160006Ev, symObjAddr: 0x7C90, symBinAddr: 0x100011AE0, symSize: 0x20 }
  - { offsetInCU: 0xAD61, offset: 0x223D2, size: 0x8, addend: 0x0, symName: __ZNSt3__16vectorIiNS_9allocatorIiEEEC2B7v160006ESt16initializer_listIiE, symObjAddr: 0x7CB0, symBinAddr: 0x100011B00, symSize: 0x120 }
  - { offsetInCU: 0xADAF, offset: 0x22420, size: 0x8, addend: 0x0, symName: __ZNKSt16initializer_listIiE4sizeB7v160006Ev, symObjAddr: 0x7E10, symBinAddr: 0x100011C20, symSize: 0x20 }
  - { offsetInCU: 0xADD3, offset: 0x22444, size: 0x8, addend: 0x0, symName: __ZNSt3__16vectorIiNS_9allocatorIiEEE18__construct_at_endIPKiLi0EEEvT_S7_m, symObjAddr: 0x7E30, symBinAddr: 0x100011C40, symSize: 0x90 }
  - { offsetInCU: 0xAE44, offset: 0x224B5, size: 0x8, addend: 0x0, symName: __ZNKSt16initializer_listIiE5beginB7v160006Ev, symObjAddr: 0x7EC0, symBinAddr: 0x100011CD0, symSize: 0x20 }
  - { offsetInCU: 0xAE68, offset: 0x224D9, size: 0x8, addend: 0x0, symName: __ZNKSt16initializer_listIiE3endB7v160006Ev, symObjAddr: 0x7EE0, symBinAddr: 0x100011CF0, symSize: 0x20 }
  - { offsetInCU: 0xAEA5, offset: 0x22516, size: 0x8, addend: 0x0, symName: __ZNKSt3__114__copy_trivialclB7v160006IKiiLi0EEENS_4pairIPT_PT0_EES5_S5_S7_, symObjAddr: 0x8180, symBinAddr: 0x100011F00, symSize: 0x40 }
  - { offsetInCU: 0xAF29, offset: 0x2259A, size: 0x8, addend: 0x0, symName: __ZNSt3__14pairIPKiS2_EC1B7v160006IS2_S2_LPv0EEEOT_OT0_, symObjAddr: 0x8270, symBinAddr: 0x100011FF0, symSize: 0x30 }
  - { offsetInCU: 0xAF85, offset: 0x225F6, size: 0x8, addend: 0x0, symName: __ZNSt3__14pairIPKiS2_EC2B7v160006IS2_S2_LPv0EEEOT_OT0_, symObjAddr: 0x82A0, symBinAddr: 0x100012020, symSize: 0x30 }
  - { offsetInCU: 0xAFE2, offset: 0x22653, size: 0x8, addend: 0x0, symName: __ZNSt3__118__unwrap_iter_implIPKiLb1EE8__unwrapB7v160006ES2_, symObjAddr: 0x82D0, symBinAddr: 0x100012050, symSize: 0x20 }
  - { offsetInCU: 0xB009, offset: 0x2267A, size: 0x8, addend: 0x0, symName: __ZNSt3__14pairIPKiPiEC1B7v160006IRS2_S3_LPv0EEEOT_OT0_, symObjAddr: 0x83A0, symBinAddr: 0x100012120, symSize: 0x30 }
  - { offsetInCU: 0xB065, offset: 0x226D6, size: 0x8, addend: 0x0, symName: __ZNSt3__14pairIPKiPiEC2B7v160006IRS2_S3_LPv0EEEOT_OT0_, symObjAddr: 0x83D0, symBinAddr: 0x100012150, symSize: 0x30 }
  - { offsetInCU: 0xB0C1, offset: 0x22732, size: 0x8, addend: 0x0, symName: __ZNSt3__14pairIPKiPiEC1B7v160006IS2_S3_LPv0EEEOT_OT0_, symObjAddr: 0x8400, symBinAddr: 0x100012180, symSize: 0x30 }
  - { offsetInCU: 0xB11D, offset: 0x2278E, size: 0x8, addend: 0x0, symName: __ZNSt3__14pairIPKiPiEC2B7v160006IS2_S3_LPv0EEEOT_OT0_, symObjAddr: 0x8430, symBinAddr: 0x1000121B0, symSize: 0x30 }
  - { offsetInCU: 0xB17A, offset: 0x227EB, size: 0x8, addend: 0x0, symName: __ZNSt3__118__unwrap_iter_implIPKiLb1EE8__rewrapB7v160006ES2_S2_, symObjAddr: 0x84A0, symBinAddr: 0x100012220, symSize: 0x50 }
  - { offsetInCU: 0xB1AA, offset: 0x2281B, size: 0x8, addend: 0x0, symName: __ZNSt3__16vectorIiNS_9allocatorIiEEE22__construct_one_at_endB7v160006IJiEEEvDpOT_, symObjAddr: 0x8530, symBinAddr: 0x100012270, symSize: 0x90 }
  - { offsetInCU: 0xB1F7, offset: 0x22868, size: 0x8, addend: 0x0, symName: __ZNSt3__16vectorIiNS_9allocatorIiEEE21__push_back_slow_pathIiEEvOT_, symObjAddr: 0x85C0, symBinAddr: 0x100012300, symSize: 0xD0 }
  - { offsetInCU: 0xB254, offset: 0x228C5, size: 0x8, addend: 0x0, symName: __ZNSt3__116allocator_traitsINS_9allocatorIiEEE9constructB7v160006IiJiEvEEvRS2_PT_DpOT0_, symObjAddr: 0x8690, symBinAddr: 0x1000123D0, symSize: 0x30 }
  - { offsetInCU: 0xB2AA, offset: 0x2291B, size: 0x8, addend: 0x0, symName: __ZNSt3__19allocatorIiE9constructB7v160006IiJiEEEvPT_DpOT0_, symObjAddr: 0x86C0, symBinAddr: 0x100012400, symSize: 0x20 }
  - { offsetInCU: 0xB2FF, offset: 0x22970, size: 0x8, addend: 0x0, symName: __ZNSt3__16vectorI19AStarInternalNode_tNS_9allocatorIS1_EEEC2ERKS4_, symObjAddr: 0x95A0, symBinAddr: 0x100012420, symSize: 0x110 }
  - { offsetInCU: 0xB35E, offset: 0x229CF, size: 0x8, addend: 0x0, symName: __ZNSt3__116allocator_traitsINS_9allocatorI19AStarInternalNode_tEEE37select_on_container_copy_constructionB7v160006IS3_vvEES3_RKS3_, symObjAddr: 0x96B0, symBinAddr: 0x100012530, symSize: 0x10 }
  - { offsetInCU: 0xB391, offset: 0x22A02, size: 0x8, addend: 0x0, symName: __ZNSt3__117__compressed_pairIP19AStarInternalNode_tNS_9allocatorIS1_EEEC1B7v160006IDnS4_EEOT_OT0_, symObjAddr: 0x96C0, symBinAddr: 0x100012540, symSize: 0x30 }
  - { offsetInCU: 0xB3E7, offset: 0x22A58, size: 0x8, addend: 0x0, symName: __ZNSt3__16vectorI19AStarInternalNode_tNS_9allocatorIS1_EEE11__vallocateB7v160006Em, symObjAddr: 0x9730, symBinAddr: 0x1000125B0, symSize: 0xA0 }
  - { offsetInCU: 0xB429, offset: 0x22A9A, size: 0x8, addend: 0x0, symName: __ZNSt3__16vectorI19AStarInternalNode_tNS_9allocatorIS1_EEE18__construct_at_endIPS1_Li0EEEvT_S7_m, symObjAddr: 0x97D0, symBinAddr: 0x100012650, symSize: 0x90 }
  - { offsetInCU: 0xB49A, offset: 0x22B0B, size: 0x8, addend: 0x0, symName: __ZNSt3__128__exception_guard_exceptionsINS_6vectorI19AStarInternalNode_tNS_9allocatorIS2_EEE16__destroy_vectorEE10__completeB7v160006Ev, symObjAddr: 0x9860, symBinAddr: 0x1000126E0, symSize: 0x20 }
  - { offsetInCU: 0xB4BE, offset: 0x22B2F, size: 0x8, addend: 0x0, symName: __ZNSt3__128__exception_guard_exceptionsINS_6vectorI19AStarInternalNode_tNS_9allocatorIS2_EEE16__destroy_vectorEED1B7v160006Ev, symObjAddr: 0x9880, symBinAddr: 0x100012700, symSize: 0x20 }
  - { offsetInCU: 0xB4E6, offset: 0x22B57, size: 0x8, addend: 0x0, symName: __ZNSt3__117__compressed_pairIP19AStarInternalNode_tNS_9allocatorIS1_EEEC2B7v160006IDnS4_EEOT_OT0_, symObjAddr: 0x98A0, symBinAddr: 0x100012720, symSize: 0x40 }
  - { offsetInCU: 0xB53C, offset: 0x22BAD, size: 0x8, addend: 0x0, symName: __ZNSt3__122__compressed_pair_elemINS_9allocatorI19AStarInternalNode_tEELi1ELb1EEC2B7v160006IS3_vEEOT_, symObjAddr: 0x98E0, symBinAddr: 0x100012760, symSize: 0x10 }
  - { offsetInCU: 0xB57C, offset: 0x22BED, size: 0x8, addend: 0x0, symName: __ZNSt3__128__exception_guard_exceptionsINS_6vectorI19AStarInternalNode_tNS_9allocatorIS2_EEE16__destroy_vectorEEC1B7v160006ES6_, symObjAddr: 0x98F0, symBinAddr: 0x100012770, symSize: 0x30 }
  - { offsetInCU: 0xB5B2, offset: 0x22C23, size: 0x8, addend: 0x0, symName: __ZNSt3__128__exception_guard_exceptionsINS_6vectorI19AStarInternalNode_tNS_9allocatorIS2_EEE16__destroy_vectorEEC2B7v160006ES6_, symObjAddr: 0x9920, symBinAddr: 0x1000127A0, symSize: 0x20 }
  - { offsetInCU: 0xB5E8, offset: 0x22C59, size: 0x8, addend: 0x0, symName: __ZNSt3__129_AllocatorDestroyRangeReverseINS_9allocatorI19AStarInternalNode_tEEPS2_EC1B7v160006ERS3_RS4_S7_, symObjAddr: 0x9AA0, symBinAddr: 0x100012920, symSize: 0x40 }
  - { offsetInCU: 0xB63E, offset: 0x22CAF, size: 0x8, addend: 0x0, symName: __ZNSt3__116allocator_traitsINS_9allocatorI19AStarInternalNode_tEEE9constructB7v160006IS2_JRS2_EvEEvRS3_PT_DpOT0_, symObjAddr: 0x9AE0, symBinAddr: 0x100012960, symSize: 0x30 }
  - { offsetInCU: 0xB694, offset: 0x22D05, size: 0x8, addend: 0x0, symName: __ZNSt3__128__exception_guard_exceptionsINS_29_AllocatorDestroyRangeReverseINS_9allocatorI19AStarInternalNode_tEEPS3_EEE10__completeB7v160006Ev, symObjAddr: 0x9B10, symBinAddr: 0x100012990, symSize: 0x20 }
  - { offsetInCU: 0xB6B8, offset: 0x22D29, size: 0x8, addend: 0x0, symName: __ZNSt3__128__exception_guard_exceptionsINS_29_AllocatorDestroyRangeReverseINS_9allocatorI19AStarInternalNode_tEEPS3_EEED1B7v160006Ev, symObjAddr: 0x9B30, symBinAddr: 0x1000129B0, symSize: 0x20 }
  - { offsetInCU: 0xB6E0, offset: 0x22D51, size: 0x8, addend: 0x0, symName: __ZNSt3__128__exception_guard_exceptionsINS_29_AllocatorDestroyRangeReverseINS_9allocatorI19AStarInternalNode_tEEPS3_EEEC1B7v160006ES6_, symObjAddr: 0x9B50, symBinAddr: 0x1000129D0, symSize: 0x40 }
  - { offsetInCU: 0xB716, offset: 0x22D87, size: 0x8, addend: 0x0, symName: __ZNSt3__128__exception_guard_exceptionsINS_29_AllocatorDestroyRangeReverseINS_9allocatorI19AStarInternalNode_tEEPS3_EEEC2B7v160006ES6_, symObjAddr: 0x9B90, symBinAddr: 0x100012A10, symSize: 0x30 }
  - { offsetInCU: 0xB74C, offset: 0x22DBD, size: 0x8, addend: 0x0, symName: __ZNSt3__129_AllocatorDestroyRangeReverseINS_9allocatorI19AStarInternalNode_tEEPS2_EC2B7v160006ERS3_RS4_S7_, symObjAddr: 0x9BC0, symBinAddr: 0x100012A40, symSize: 0x40 }
  - { offsetInCU: 0xB7A1, offset: 0x22E12, size: 0x8, addend: 0x0, symName: __ZNSt3__19allocatorI19AStarInternalNode_tE9constructB7v160006IS1_JRS1_EEEvPT_DpOT0_, symObjAddr: 0x9C00, symBinAddr: 0x100012A80, symSize: 0x30 }
  - { offsetInCU: 0xB7F5, offset: 0x22E66, size: 0x8, addend: 0x0, symName: __ZNSt3__128__exception_guard_exceptionsINS_29_AllocatorDestroyRangeReverseINS_9allocatorI19AStarInternalNode_tEEPS3_EEED2B7v160006Ev, symObjAddr: 0x9C30, symBinAddr: 0x100012AB0, symSize: 0x40 }
  - { offsetInCU: 0xB81D, offset: 0x22E8E, size: 0x8, addend: 0x0, symName: __ZNKSt3__129_AllocatorDestroyRangeReverseINS_9allocatorI19AStarInternalNode_tEEPS2_EclB7v160006Ev, symObjAddr: 0x9C70, symBinAddr: 0x100012AF0, symSize: 0x60 }
  - { offsetInCU: 0xB841, offset: 0x22EB2, size: 0x8, addend: 0x0, symName: __ZNSt3__128__exception_guard_exceptionsINS_6vectorI19AStarInternalNode_tNS_9allocatorIS2_EEE16__destroy_vectorEED2B7v160006Ev, symObjAddr: 0x9D40, symBinAddr: 0x100012BC0, symSize: 0x40 }
  - { offsetInCU: 0xB869, offset: 0x22EDA, size: 0x8, addend: 0x0, symName: __ZNSt3__16vectorIiNS_9allocatorIiEEE13__move_assignERS3_NS_17integral_constantIbLb1EEE, symObjAddr: 0x9EA0, symBinAddr: 0x100012C00, symSize: 0xA0 }
  - { offsetInCU: 0xB8A9, offset: 0x22F1A, size: 0x8, addend: 0x0, symName: __ZNSt3__16vectorIiNS_9allocatorIiEEE19__move_assign_allocB7v160006ERS3_, symObjAddr: 0x9F40, symBinAddr: 0x100012CA0, symSize: 0x30 }
  - { offsetInCU: 0xB8DC, offset: 0x22F4D, size: 0x8, addend: 0x0, symName: __ZNSt3__16vectorIiNS_9allocatorIiEEE19__move_assign_allocB7v160006ERS3_NS_17integral_constantIbLb1EEE, symObjAddr: 0x9F70, symBinAddr: 0x100012CD0, symSize: 0x30 }
...
